	.text
	.syntax unified
	.eabi_attribute	67, "2.09"	@ Tag_conformance
	.cpu	cortex-m0
	.eabi_attribute	6, 12	@ Tag_CPU_arch
	.eabi_attribute	7, 77	@ Tag_CPU_arch_profile
	.eabi_attribute	8, 0	@ Tag_ARM_ISA_use
	.eabi_attribute	9, 1	@ Tag_THUMB_ISA_use
	.eabi_attribute	34, 0	@ Tag_CPU_unaligned_access
	.eabi_attribute	17, 1	@ Tag_ABI_PCS_GOT_use
	.eabi_attribute	20, 2	@ Tag_ABI_FP_denormal
	.eabi_attribute	21, 0	@ Tag_ABI_FP_exceptions
	.eabi_attribute	23, 1	@ Tag_ABI_FP_number_model
	.eabi_attribute	24, 1	@ Tag_ABI_align_needed
	.eabi_attribute	25, 1	@ Tag_ABI_align_preserved
	.eabi_attribute	38, 1	@ Tag_ABI_FP_16bit_format
	.eabi_attribute	18, 2	@ Tag_ABI_PCS_wchar_t
	.eabi_attribute	26, 1	@ Tag_ABI_enum_size
	.eabi_attribute	14, 0	@ Tag_ABI_PCS_R9_use
	.file	"pin_config.c"
	.file	1 "C:\\Users\\mgokce\\AppData\\Local\\Keil_v5\\ARM\\ARMCLANG\\bin\\..\\include" "stdint.h"
	.file	2 "C:\\Nuvoton_ws\\M032GK_GPIO_LED_3_BUTON\\Keil" "../../M031BSP/Library/Device/Nuvoton/M031/Include\\sys_reg.h"
	.section	.text.pin_config_init_ice,"ax",%progbits
	.hidden	pin_config_init_ice             @ -- Begin function pin_config_init_ice
	.globl	pin_config_init_ice
	.p2align	2
	.type	pin_config_init_ice,%function
	.code	16                              @ @pin_config_init_ice
	.thumb_func
pin_config_init_ice:
.Lfunc_begin0:
	.file	3 "C:\\Nuvoton_ws\\M032GK_GPIO_LED_3_BUTON\\Keil" "../pin_config.c"
	.loc	3 61 0                          @ ../pin_config.c:61:0
	.fnstart
	.cfi_sections .debug_frame
	.cfi_startproc
@ %bb.0:
	ldr	r0, __arm_cp.0_0
.Ltmp0:
	.loc	3 62 19 prologue_end            @ ../pin_config.c:62:19
	ldr	r1, [r0]
	movs	r2, #255
	bics	r1, r2
	str	r1, [r0]
	.loc	3 63 19                         @ ../pin_config.c:63:19
	ldr	r1, [r0]
	movs	r2, #238
	orrs	r2, r1
	str	r2, [r0]
	.loc	3 65 5                          @ ../pin_config.c:65:5
	bx	lr
.Ltmp1:
	.p2align	2
@ %bb.1:
	.loc	3 0 5 is_stmt 0                 @ ../pin_config.c:0:5
__arm_cp.0_0:
	.long	1073741912                      @ 0x40000058
.Lcpi_end0:
	.size	__arm_cp.0_0, .Lcpi_end0-__arm_cp.0_0
.Lfunc_end0:
	.size	pin_config_init_ice, .Lfunc_end0-pin_config_init_ice
	.cfi_endproc
	.cantunwind
	.fnend
                                        @ -- End function
	.section	.text.pin_config_deinit_ice,"ax",%progbits
	.hidden	pin_config_deinit_ice           @ -- Begin function pin_config_deinit_ice
	.globl	pin_config_deinit_ice
	.p2align	2
	.type	pin_config_deinit_ice,%function
	.code	16                              @ @pin_config_deinit_ice
	.thumb_func
pin_config_deinit_ice:
.Lfunc_begin1:
	.loc	3 69 0 is_stmt 1                @ ../pin_config.c:69:0
	.fnstart
	.cfi_startproc
@ %bb.0:
	ldr	r0, __arm_cp.1_0
.Ltmp2:
	.loc	3 70 19 prologue_end            @ ../pin_config.c:70:19
	ldr	r1, [r0]
	movs	r2, #255
	bics	r1, r2
	str	r1, [r0]
	.loc	3 72 5                          @ ../pin_config.c:72:5
	bx	lr
.Ltmp3:
	.p2align	2
@ %bb.1:
	.loc	3 0 5 is_stmt 0                 @ ../pin_config.c:0:5
__arm_cp.1_0:
	.long	1073741912                      @ 0x40000058
.Lcpi_end1:
	.size	__arm_cp.1_0, .Lcpi_end1-__arm_cp.1_0
.Lfunc_end1:
	.size	pin_config_deinit_ice, .Lfunc_end1-pin_config_deinit_ice
	.cfi_endproc
	.cantunwind
	.fnend
                                        @ -- End function
	.section	.text.pin_config_init_pb,"ax",%progbits
	.hidden	pin_config_init_pb              @ -- Begin function pin_config_init_pb
	.globl	pin_config_init_pb
	.p2align	2
	.type	pin_config_init_pb,%function
	.code	16                              @ @pin_config_init_pb
	.thumb_func
pin_config_init_pb:
.Lfunc_begin2:
	.loc	3 76 0 is_stmt 1                @ ../pin_config.c:76:0
	.fnstart
	.cfi_startproc
@ %bb.0:
	ldr	r0, __arm_cp.2_0
.Ltmp4:
	.loc	3 77 19 prologue_end            @ ../pin_config.c:77:19
	ldr	r1, [r0]
	movs	r2, #240
	bics	r1, r2
	str	r1, [r0]
	.loc	3 78 19                         @ ../pin_config.c:78:19
	ldr	r1, [r0]
	str	r1, [r0]
	.loc	3 80 5                          @ ../pin_config.c:80:5
	bx	lr
.Ltmp5:
	.p2align	2
@ %bb.1:
	.loc	3 0 5 is_stmt 0                 @ ../pin_config.c:0:5
__arm_cp.2_0:
	.long	1073741880                      @ 0x40000038
.Lcpi_end2:
	.size	__arm_cp.2_0, .Lcpi_end2-__arm_cp.2_0
.Lfunc_end2:
	.size	pin_config_init_pb, .Lfunc_end2-pin_config_init_pb
	.cfi_endproc
	.cantunwind
	.fnend
                                        @ -- End function
	.section	.text.pin_config_deinit_pb,"ax",%progbits
	.hidden	pin_config_deinit_pb            @ -- Begin function pin_config_deinit_pb
	.globl	pin_config_deinit_pb
	.p2align	2
	.type	pin_config_deinit_pb,%function
	.code	16                              @ @pin_config_deinit_pb
	.thumb_func
pin_config_deinit_pb:
.Lfunc_begin3:
	.loc	3 84 0 is_stmt 1                @ ../pin_config.c:84:0
	.fnstart
	.cfi_startproc
@ %bb.0:
	ldr	r0, __arm_cp.3_0
.Ltmp6:
	.loc	3 85 19 prologue_end            @ ../pin_config.c:85:19
	ldr	r1, [r0]
	movs	r2, #240
	bics	r1, r2
	str	r1, [r0]
	.loc	3 87 5                          @ ../pin_config.c:87:5
	bx	lr
.Ltmp7:
	.p2align	2
@ %bb.1:
	.loc	3 0 5 is_stmt 0                 @ ../pin_config.c:0:5
__arm_cp.3_0:
	.long	1073741880                      @ 0x40000038
.Lcpi_end3:
	.size	__arm_cp.3_0, .Lcpi_end3-__arm_cp.3_0
.Lfunc_end3:
	.size	pin_config_deinit_pb, .Lfunc_end3-pin_config_deinit_pb
	.cfi_endproc
	.cantunwind
	.fnend
                                        @ -- End function
	.section	.text.pin_config_init_pc,"ax",%progbits
	.hidden	pin_config_init_pc              @ -- Begin function pin_config_init_pc
	.globl	pin_config_init_pc
	.p2align	2
	.type	pin_config_init_pc,%function
	.code	16                              @ @pin_config_init_pc
	.thumb_func
pin_config_init_pc:
.Lfunc_begin4:
	.loc	3 91 0 is_stmt 1                @ ../pin_config.c:91:0
	.fnstart
	.cfi_startproc
@ %bb.0:
	ldr	r0, __arm_cp.4_0
.Ltmp8:
	.loc	3 92 19 prologue_end            @ ../pin_config.c:92:19
	ldr	r1, [r0]
	ldr	r2, __arm_cp.4_1
	ands	r2, r1
	str	r2, [r0]
	.loc	3 93 19                         @ ../pin_config.c:93:19
	ldr	r1, [r0]
	str	r1, [r0]
	.loc	3 95 5                          @ ../pin_config.c:95:5
	bx	lr
.Ltmp9:
	.p2align	2
@ %bb.1:
	.loc	3 0 5 is_stmt 0                 @ ../pin_config.c:0:5
__arm_cp.4_0:
	.long	1073741892                      @ 0x40000044
.Lcpi_end4:
	.size	__arm_cp.4_0, .Lcpi_end4-__arm_cp.4_0
__arm_cp.4_1:
	.long	4293918975                      @ 0xfff000ff
.Lcpi_end5:
	.size	__arm_cp.4_1, .Lcpi_end5-__arm_cp.4_1
.Lfunc_end4:
	.size	pin_config_init_pc, .Lfunc_end4-pin_config_init_pc
	.cfi_endproc
	.cantunwind
	.fnend
                                        @ -- End function
	.section	.text.pin_config_deinit_pc,"ax",%progbits
	.hidden	pin_config_deinit_pc            @ -- Begin function pin_config_deinit_pc
	.globl	pin_config_deinit_pc
	.p2align	2
	.type	pin_config_deinit_pc,%function
	.code	16                              @ @pin_config_deinit_pc
	.thumb_func
pin_config_deinit_pc:
.Lfunc_begin5:
	.loc	3 99 0 is_stmt 1                @ ../pin_config.c:99:0
	.fnstart
	.cfi_startproc
@ %bb.0:
	ldr	r0, __arm_cp.5_0
.Ltmp10:
	.loc	3 100 19 prologue_end           @ ../pin_config.c:100:19
	ldr	r1, [r0]
	ldr	r2, __arm_cp.5_1
	ands	r2, r1
	str	r2, [r0]
	.loc	3 102 5                         @ ../pin_config.c:102:5
	bx	lr
.Ltmp11:
	.p2align	2
@ %bb.1:
	.loc	3 0 5 is_stmt 0                 @ ../pin_config.c:0:5
__arm_cp.5_0:
	.long	1073741892                      @ 0x40000044
.Lcpi_end6:
	.size	__arm_cp.5_0, .Lcpi_end6-__arm_cp.5_0
__arm_cp.5_1:
	.long	4293918975                      @ 0xfff000ff
.Lcpi_end7:
	.size	__arm_cp.5_1, .Lcpi_end7-__arm_cp.5_1
.Lfunc_end5:
	.size	pin_config_deinit_pc, .Lfunc_end5-pin_config_deinit_pc
	.cfi_endproc
	.cantunwind
	.fnend
                                        @ -- End function
	.section	.text.pin_config_init_pf,"ax",%progbits
	.hidden	pin_config_init_pf              @ -- Begin function pin_config_init_pf
	.globl	pin_config_init_pf
	.p2align	2
	.type	pin_config_init_pf,%function
	.code	16                              @ @pin_config_init_pf
	.thumb_func
pin_config_init_pf:
.Lfunc_begin6:
	.loc	3 106 0 is_stmt 1               @ ../pin_config.c:106:0
	.fnstart
	.cfi_startproc
@ %bb.0:
	ldr	r0, __arm_cp.6_0
.Ltmp12:
	.loc	3 107 19 prologue_end           @ ../pin_config.c:107:19
	ldr	r1, [r0, #4]
	ldr	r2, __arm_cp.6_1
	ands	r2, r1
	str	r2, [r0, #4]
	.loc	3 108 19                        @ ../pin_config.c:108:19
	ldr	r1, [r0, #4]
	str	r1, [r0, #4]
	movs	r1, #255
	lsls	r1, r1, #24
	.loc	3 109 19                        @ ../pin_config.c:109:19
	ldr	r2, [r0]
	bics	r2, r1
	str	r2, [r0]
	.loc	3 110 19                        @ ../pin_config.c:110:19
	ldr	r1, [r0]
	str	r1, [r0]
	.loc	3 112 5                         @ ../pin_config.c:112:5
	bx	lr
.Ltmp13:
	.p2align	2
@ %bb.1:
	.loc	3 0 5 is_stmt 0                 @ ../pin_config.c:0:5
__arm_cp.6_0:
	.long	1073741912                      @ 0x40000058
.Lcpi_end8:
	.size	__arm_cp.6_0, .Lcpi_end8-__arm_cp.6_0
__arm_cp.6_1:
	.long	4043309040                      @ 0xf0fffff0
.Lcpi_end9:
	.size	__arm_cp.6_1, .Lcpi_end9-__arm_cp.6_1
.Lfunc_end6:
	.size	pin_config_init_pf, .Lfunc_end6-pin_config_init_pf
	.cfi_endproc
	.cantunwind
	.fnend
                                        @ -- End function
	.section	.text.pin_config_deinit_pf,"ax",%progbits
	.hidden	pin_config_deinit_pf            @ -- Begin function pin_config_deinit_pf
	.globl	pin_config_deinit_pf
	.p2align	2
	.type	pin_config_deinit_pf,%function
	.code	16                              @ @pin_config_deinit_pf
	.thumb_func
pin_config_deinit_pf:
.Lfunc_begin7:
	.loc	3 116 0 is_stmt 1               @ ../pin_config.c:116:0
	.fnstart
	.cfi_startproc
@ %bb.0:
	ldr	r0, __arm_cp.7_0
.Ltmp14:
	.loc	3 117 19 prologue_end           @ ../pin_config.c:117:19
	ldr	r1, [r0, #4]
	ldr	r2, __arm_cp.7_1
	ands	r2, r1
	str	r2, [r0, #4]
	movs	r1, #255
	lsls	r1, r1, #24
	.loc	3 118 19                        @ ../pin_config.c:118:19
	ldr	r2, [r0]
	bics	r2, r1
	str	r2, [r0]
	.loc	3 120 5                         @ ../pin_config.c:120:5
	bx	lr
.Ltmp15:
	.p2align	2
@ %bb.1:
	.loc	3 0 5 is_stmt 0                 @ ../pin_config.c:0:5
__arm_cp.7_0:
	.long	1073741912                      @ 0x40000058
.Lcpi_end10:
	.size	__arm_cp.7_0, .Lcpi_end10-__arm_cp.7_0
__arm_cp.7_1:
	.long	4043309040                      @ 0xf0fffff0
.Lcpi_end11:
	.size	__arm_cp.7_1, .Lcpi_end11-__arm_cp.7_1
.Lfunc_end7:
	.size	pin_config_deinit_pf, .Lfunc_end7-pin_config_deinit_pf
	.cfi_endproc
	.cantunwind
	.fnend
                                        @ -- End function
	.section	.text.pin_config_init,"ax",%progbits
	.hidden	pin_config_init                 @ -- Begin function pin_config_init
	.globl	pin_config_init
	.p2align	2
	.type	pin_config_init,%function
	.code	16                              @ @pin_config_init
	.thumb_func
pin_config_init:
.Lfunc_begin8:
	.loc	3 124 0 is_stmt 1               @ ../pin_config.c:124:0
	.fnstart
	.cfi_startproc
@ %bb.0:
	.save	{r4, lr}
	push	{r4, lr}
	.cfi_def_cfa_offset 8
	.cfi_offset lr, -4
	.cfi_offset r4, -8
	ldr	r0, __arm_cp.8_0
.Ltmp16:
	.loc	3 62 19 prologue_end            @ ../pin_config.c:62:19
	ldr	r2, [r0]
	movs	r1, #255
	bics	r2, r1
	str	r2, [r0]
	.loc	3 63 19                         @ ../pin_config.c:63:19
	ldr	r2, [r0]
	movs	r3, #238
	orrs	r3, r2
	str	r3, [r0]
.Ltmp17:
	.loc	3 77 19                         @ ../pin_config.c:77:19
	mov	r2, r0
	subs	r2, #32
	ldr	r3, [r2]
	movs	r4, #240
	bics	r3, r4
	str	r3, [r2]
	.loc	3 78 19                         @ ../pin_config.c:78:19
	ldr	r3, [r2]
	str	r3, [r2]
.Ltmp18:
	.loc	3 92 19                         @ ../pin_config.c:92:19
	mov	r2, r0
	subs	r2, #20
	ldr	r3, [r2]
	ldr	r4, __arm_cp.8_1
	ands	r4, r3
	str	r4, [r2]
	.loc	3 93 19                         @ ../pin_config.c:93:19
	ldr	r3, [r2]
	str	r3, [r2]
.Ltmp19:
	.loc	3 107 19                        @ ../pin_config.c:107:19
	ldr	r2, [r0, #4]
	ldr	r3, __arm_cp.8_2
	ands	r3, r2
	str	r3, [r0, #4]
	.loc	3 108 19                        @ ../pin_config.c:108:19
	ldr	r2, [r0, #4]
	str	r2, [r0, #4]
	lsls	r1, r1, #24
	.loc	3 109 19                        @ ../pin_config.c:109:19
	ldr	r2, [r0]
	bics	r2, r1
	str	r2, [r0]
	.loc	3 110 19                        @ ../pin_config.c:110:19
	ldr	r1, [r0]
	str	r1, [r0]
.Ltmp20:
	.loc	3 147 5 epilogue_begin          @ ../pin_config.c:147:5
	pop	{r4, pc}
.Ltmp21:
	.p2align	2
@ %bb.1:
	.loc	3 0 5 is_stmt 0                 @ ../pin_config.c:0:5
__arm_cp.8_0:
	.long	1073741912                      @ 0x40000058
.Lcpi_end12:
	.size	__arm_cp.8_0, .Lcpi_end12-__arm_cp.8_0
__arm_cp.8_1:
	.long	4293918975                      @ 0xfff000ff
.Lcpi_end13:
	.size	__arm_cp.8_1, .Lcpi_end13-__arm_cp.8_1
__arm_cp.8_2:
	.long	4043309040                      @ 0xf0fffff0
.Lcpi_end14:
	.size	__arm_cp.8_2, .Lcpi_end14-__arm_cp.8_2
.Lfunc_end8:
	.size	pin_config_init, .Lfunc_end8-pin_config_init
	.cfi_endproc
	.cantunwind
	.fnend
                                        @ -- End function
	.section	.text.pin_config_deinit,"ax",%progbits
	.hidden	pin_config_deinit               @ -- Begin function pin_config_deinit
	.globl	pin_config_deinit
	.p2align	2
	.type	pin_config_deinit,%function
	.code	16                              @ @pin_config_deinit
	.thumb_func
pin_config_deinit:
.Lfunc_begin9:
	.loc	3 151 0 is_stmt 1               @ ../pin_config.c:151:0
	.fnstart
	.cfi_startproc
@ %bb.0:
	.save	{r4, lr}
	push	{r4, lr}
	.cfi_def_cfa_offset 8
	.cfi_offset lr, -4
	.cfi_offset r4, -8
	ldr	r0, __arm_cp.9_0
.Ltmp22:
	.loc	3 70 19 prologue_end            @ ../pin_config.c:70:19
	ldr	r2, [r0]
	movs	r1, #255
	bics	r2, r1
	str	r2, [r0]
.Ltmp23:
	.loc	3 85 19                         @ ../pin_config.c:85:19
	mov	r2, r0
	subs	r2, #32
	ldr	r3, [r2]
	movs	r4, #240
	bics	r3, r4
	str	r3, [r2]
.Ltmp24:
	.loc	3 100 19                        @ ../pin_config.c:100:19
	mov	r2, r0
	subs	r2, #20
	ldr	r3, [r2]
	ldr	r4, __arm_cp.9_1
	ands	r4, r3
	str	r4, [r2]
.Ltmp25:
	.loc	3 117 19                        @ ../pin_config.c:117:19
	ldr	r2, [r0, #4]
	ldr	r3, __arm_cp.9_2
	ands	r3, r2
	str	r3, [r0, #4]
	lsls	r1, r1, #24
	.loc	3 118 19                        @ ../pin_config.c:118:19
	ldr	r2, [r0]
	bics	r2, r1
	str	r2, [r0]
.Ltmp26:
	.loc	3 157 5 epilogue_begin          @ ../pin_config.c:157:5
	pop	{r4, pc}
.Ltmp27:
	.p2align	2
@ %bb.1:
	.loc	3 0 5 is_stmt 0                 @ ../pin_config.c:0:5
__arm_cp.9_0:
	.long	1073741912                      @ 0x40000058
.Lcpi_end15:
	.size	__arm_cp.9_0, .Lcpi_end15-__arm_cp.9_0
__arm_cp.9_1:
	.long	4293918975                      @ 0xfff000ff
.Lcpi_end16:
	.size	__arm_cp.9_1, .Lcpi_end16-__arm_cp.9_1
__arm_cp.9_2:
	.long	4043309040                      @ 0xf0fffff0
.Lcpi_end17:
	.size	__arm_cp.9_2, .Lcpi_end17-__arm_cp.9_2
.Lfunc_end9:
	.size	pin_config_deinit, .Lfunc_end9-pin_config_deinit
	.cfi_endproc
	.cantunwind
	.fnend
                                        @ -- End function
	.section	".note.GNU-stack","",%progbits
	.eabi_attribute	30, 1	@ Tag_ABI_optimization_goals
	.ARM_attribute	16, 1	@ Tag_AV_eba