	.text
	.syntax unified
	.eabi_attribute	67, "2.09"	@ Tag_conformance
	.cpu	cortex-m0
	.eabi_attribute	6, 12	@ Tag_CPU_arch
	.eabi_attribute	7, 77	@ Tag_CPU_arch_profile
	.eabi_attribute	8, 0	@ Tag_ARM_ISA_use
	.eabi_attribute	9, 1	@ Tag_THUMB_ISA_use
	.eabi_attribute	34, 0	@ Tag_CPU_unaligned_access
	.eabi_attribute	17, 1	@ Tag_ABI_PCS_GOT_use
	.eabi_attribute	20, 2	@ Tag_ABI_FP_denormal
	.eabi_attribute	21, 0	@ Tag_ABI_FP_exceptions
	.eabi_attribute	23, 1	@ Tag_ABI_FP_number_model
	.eabi_attribute	24, 1	@ Tag_ABI_align_needed
	.eabi_attribute	25, 1	@ Tag_ABI_align_preserved
	.eabi_attribute	38, 1	@ Tag_ABI_FP_16bit_format
	.eabi_attribute	18, 2	@ Tag_ABI_PCS_wchar_t
	.eabi_attribute	26, 1	@ Tag_ABI_enum_size
	.eabi_attribute	14, 0	@ Tag_ABI_PCS_R9_use
	.file	"system_M031Series.c"
	.file	1 "C:\\Users\\mgokce\\AppData\\Local\\Keil_v5\\ARM\\ARMCLANG\\bin\\..\\include" "stdint.h"
	.file	2 "C:\\Nuvoton_ws\\M032GK_GPIO_LED_1\\Keil" "../../M031BSP/Library/Device/Nuvoton/M031/Source/system_M031Series.c"
	.file	3 "C:\\Nuvoton_ws\\M032GK_GPIO_LED_1\\Keil" "../../M031BSP/Library/Device/Nuvoton/M031/Include\\clk_reg.h"
	.file	4 "C:\\Nuvoton_ws\\M032GK_GPIO_LED_1\\Keil" "../../M031BSP/Library/Device/Nuvoton/M031/Include\\sys_reg.h"
	.section	.text.SystemCoreClockUpdate,"ax",%progbits
	.hidden	SystemCoreClockUpdate           @ -- Begin function SystemCoreClockUpdate
	.globl	SystemCoreClockUpdate
	.p2align	2
	.type	SystemCoreClockUpdate,%function
	.code	16                              @ @SystemCoreClockUpdate
	.thumb_func
SystemCoreClockUpdate:
.Lfunc_begin0:
	.loc	2 43 0                          @ ../../M031BSP/Library/Device/Nuvoton/M031/Source/system_M031Series.c:43:0
	.fnstart
	.cfi_sections .debug_frame
	.cfi_startproc
@ %bb.0:
	.save	{r4, r5, r7, lr}
	push	{r4, r5, r7, lr}
	.cfi_def_cfa_offset 16
	.cfi_offset lr, -4
	.cfi_offset r7, -8
	.cfi_offset r5, -12
	.cfi_offset r4, -16
	ldr	r4, __arm_cp.0_0
.Ltmp0:
	.loc	2 47 22 prologue_end            @ ../../M031BSP/Library/Device/Nuvoton/M031/Source/system_M031Series.c:47:22
	ldr	r0, [r4]
	movs	r5, #7
	.loc	2 47 30 is_stmt 0               @ ../../M031BSP/Library/Device/Nuvoton/M031/Source/system_M031Series.c:47:30
	ands	r5, r0
.Ltmp1:
	@DEBUG_VALUE: CLK_GetPLLClockFreq:u32PllFreq <- 0
	@DEBUG_VALUE: SystemCoreClockUpdate:u32ClkSrc <- $r5
	.file	5 "C:\\Nuvoton_ws\\M032GK_GPIO_LED_1\\Keil" "../../M031BSP/Library/StdDriver/inc\\clk.h"
	.loc	5 469 19 is_stmt 1              @ ../../M031BSP/Library/StdDriver/inc\clk.h:469:19
	ldr	r1, [r4, #48]
.Ltmp2:
	@DEBUG_VALUE: CLK_GetPLLClockFreq:u32Reg <- $r1
	.loc	5 0 19 is_stmt 0                @ ../../M031BSP/Library/StdDriver/inc\clk.h:0:19
	movs	r0, #5
	lsls	r0, r0, #16
	.loc	5 471 9 is_stmt 1               @ ../../M031BSP/Library/StdDriver/inc\clk.h:471:9
	tst	r1, r0
	beq	.LBB0_2
.Ltmp3:
@ %bb.1:
	@DEBUG_VALUE: CLK_GetPLLClockFreq:u32Reg <- $r1
	@DEBUG_VALUE: SystemCoreClockUpdate:u32ClkSrc <- $r5
	@DEBUG_VALUE: CLK_GetPLLClockFreq:u32PllFreq <- 0
	.loc	5 0 9 is_stmt 0                 @ ../../M031BSP/Library/StdDriver/inc\clk.h:0:9
	movs	r0, #0
	b	.LBB0_6
.Ltmp4:
.LBB0_2:
	@DEBUG_VALUE: CLK_GetPLLClockFreq:u32Reg <- $r1
	@DEBUG_VALUE: SystemCoreClockUpdate:u32ClkSrc <- $r5
	@DEBUG_VALUE: CLK_GetPLLClockFreq:u32PllFreq <- 0
	lsls	r0, r1, #12
	bpl	.LBB0_4
.Ltmp5:
@ %bb.3:
	@DEBUG_VALUE: CLK_GetPLLClockFreq:u32Reg <- $r1
	@DEBUG_VALUE: SystemCoreClockUpdate:u32ClkSrc <- $r5
	@DEBUG_VALUE: CLK_GetPLLClockFreq:u32PllFreq <- 0
	ldr	r0, __arm_cp.0_2
.Ltmp6:
	@DEBUG_VALUE: CLK_GetPLLClockFreq:u32FIN <- $r0
	.loc	5 480 13 is_stmt 1              @ ../../M031BSP/Library/StdDriver/inc\clk.h:480:13
	lsls	r2, r1, #14
	bpl	.LBB0_5
	b	.LBB0_6
.Ltmp7:
.LBB0_4:
	@DEBUG_VALUE: CLK_GetPLLClockFreq:u32Reg <- $r1
	@DEBUG_VALUE: SystemCoreClockUpdate:u32ClkSrc <- $r5
	@DEBUG_VALUE: CLK_GetPLLClockFreq:u32PllFreq <- 0
	.loc	5 0 13 is_stmt 0                @ ../../M031BSP/Library/StdDriver/inc\clk.h:0:13
	ldr	r0, __arm_cp.0_1
.Ltmp8:
	@DEBUG_VALUE: CLK_GetPLLClockFreq:u32FIN <- $r0
	.loc	5 480 13                        @ ../../M031BSP/Library/StdDriver/inc\clk.h:480:13
	lsls	r2, r1, #14
	bmi	.LBB0_6
.Ltmp9:
.LBB0_5:
	@DEBUG_VALUE: CLK_GetPLLClockFreq:u32FIN <- $r0
	@DEBUG_VALUE: CLK_GetPLLClockFreq:u32Reg <- $r1
	@DEBUG_VALUE: SystemCoreClockUpdate:u32ClkSrc <- $r5
	@DEBUG_VALUE: CLK_GetPLLClockFreq:u32PllFreq <- 0
	.loc	5 0 13                          @ ../../M031BSP/Library/StdDriver/inc\clk.h:0:13
	ldr	r2, __arm_cp.0_3
.Ltmp10:
	@DEBUG_VALUE: CLK_GetPLLClockFreq:u32NO <- undef
	.loc	5 489 31 is_stmt 1              @ ../../M031BSP/Library/StdDriver/inc\clk.h:489:31
	ands	r2, r1
	.loc	5 489 80 is_stmt 0              @ ../../M031BSP/Library/StdDriver/inc\clk.h:489:80
	adds	r2, r2, #2
.Ltmp11:
	@DEBUG_VALUE: CLK_GetPLLClockFreq:u32NF <- $r2
	.loc	5 492 36 is_stmt 1              @ ../../M031BSP/Library/StdDriver/inc\clk.h:492:36
	lsrs	r0, r0, #2
.Ltmp12:
	.loc	5 492 42 is_stmt 0              @ ../../M031BSP/Library/StdDriver/inc\clk.h:492:42
	muls	r0, r2, r0
	.loc	5 488 64 is_stmt 1              @ ../../M031BSP/Library/StdDriver/inc\clk.h:488:64
	lsls	r2, r1, #16
.Ltmp13:
	lsrs	r2, r2, #30
	.loc	5 488 21 is_stmt 0              @ ../../M031BSP/Library/StdDriver/inc\clk.h:488:21
	adr	r3, .LCPI0_4
	ldrb	r2, [r3, r2]
	.loc	5 490 55 is_stmt 1              @ ../../M031BSP/Library/StdDriver/inc\clk.h:490:55
	lsls	r1, r1, #18
.Ltmp14:
	lsrs	r1, r1, #27
	.loc	5 490 80 is_stmt 0              @ ../../M031BSP/Library/StdDriver/inc\clk.h:490:80
	adds	r1, r1, #2
.Ltmp15:
	@DEBUG_VALUE: CLK_GetPLLClockFreq:u32NR <- $r1
	.loc	5 492 60 is_stmt 1              @ ../../M031BSP/Library/StdDriver/inc\clk.h:492:60
	muls	r1, r2, r1
.Ltmp16:
	.loc	5 492 51 is_stmt 0              @ ../../M031BSP/Library/StdDriver/inc\clk.h:492:51
	bl	__aeabi_uidiv
.Ltmp17:
	.loc	5 492 69                        @ ../../M031BSP/Library/StdDriver/inc\clk.h:492:69
	lsls	r0, r0, #2
.Ltmp18:
	@DEBUG_VALUE: CLK_GetPLLClockFreq:u32PllFreq <- $r0
.LBB0_6:
	@DEBUG_VALUE: SystemCoreClockUpdate:u32ClkSrc <- $r5
	.loc	2 50 14 is_stmt 1               @ ../../M031BSP/Library/Device/Nuvoton/M031/Source/system_M031Series.c:50:14
	ldr	r1, __arm_cp.0_5
	str	r0, [r1]
	.loc	2 52 8                          @ ../../M031BSP/Library/Device/Nuvoton/M031/Source/system_M031Series.c:52:8
	cmp	r5, #2
	beq	.LBB0_8
.Ltmp19:
@ %bb.7:
	@DEBUG_VALUE: SystemCoreClockUpdate:u32ClkSrc <- $r5
	.loc	2 55 19                         @ ../../M031BSP/Library/Device/Nuvoton/M031/Source/system_M031Series.c:55:19
	lsls	r0, r5, #2
	ldr	r1, __arm_cp.0_6
	ldr	r0, [r1, r0]
.Ltmp20:
	@DEBUG_VALUE: SystemCoreClockUpdate:u32Freq <- $r0
.LBB0_8:
	@DEBUG_VALUE: SystemCoreClockUpdate:u32ClkSrc <- $r5
	@DEBUG_VALUE: SystemCoreClockUpdate:u32Freq <- $r0
	.loc	2 63 24                         @ ../../M031BSP/Library/Device/Nuvoton/M031/Source/system_M031Series.c:63:24
	ldr	r1, [r4, #16]
	movs	r2, #15
	.loc	2 63 32 is_stmt 0               @ ../../M031BSP/Library/Device/Nuvoton/M031/Source/system_M031Series.c:63:32
	ands	r2, r1
	.loc	2 63 59                         @ ../../M031BSP/Library/Device/Nuvoton/M031/Source/system_M031Series.c:63:59
	adds	r1, r2, #1
.Ltmp21:
	@DEBUG_VALUE: SystemCoreClockUpdate:u32HclkDiv <- $r1
	.loc	2 66 31 is_stmt 1               @ ../../M031BSP/Library/Device/Nuvoton/M031/Source/system_M031Series.c:66:31
	bl	__aeabi_uidiv
.Ltmp22:
	.loc	2 66 21 is_stmt 0               @ ../../M031BSP/Library/Device/Nuvoton/M031/Source/system_M031Series.c:66:21
	ldr	r1, __arm_cp.0_7
	str	r0, [r1]
	ldr	r1, __arm_cp.0_8
	.loc	2 68 36 is_stmt 1               @ ../../M031BSP/Library/Device/Nuvoton/M031/Source/system_M031Series.c:68:36
	adds	r0, r0, r1
	ldr	r1, __arm_cp.0_9
	.loc	2 68 46 is_stmt 0               @ ../../M031BSP/Library/Device/Nuvoton/M031/Source/system_M031Series.c:68:46
	bl	__aeabi_uidiv
.Ltmp23:
	.loc	2 68 17                         @ ../../M031BSP/Library/Device/Nuvoton/M031/Source/system_M031Series.c:68:17
	ldr	r1, __arm_cp.0_10
	str	r0, [r1]
	.loc	2 69 1 epilogue_begin is_stmt 1 @ ../../M031BSP/Library/Device/Nuvoton/M031/Source/system_M031Series.c:69:1
	pop	{r4, r5, r7, pc}
.Ltmp24:
	.p2align	2
@ %bb.9:
	.loc	2 0 1 is_stmt 0                 @ ../../M031BSP/Library/Device/Nuvoton/M031/Source/system_M031Series.c:0:1
__arm_cp.0_0:
	.long	1073742352                      @ 0x40000210
.Lcpi_end0:
	.size	__arm_cp.0_0, .Lcpi_end0-__arm_cp.0_0
__arm_cp.0_1:
	.long	32000000                        @ 0x1e84800
.Lcpi_end1:
	.size	__arm_cp.0_1, .Lcpi_end1-__arm_cp.0_1
__arm_cp.0_2:
	.long	12000000                        @ 0xb71b00
.Lcpi_end2:
	.size	__arm_cp.0_2, .Lcpi_end2-__arm_cp.0_2
__arm_cp.0_3:
	.long	511                             @ 0x1ff
.Lcpi_end3:
	.size	__arm_cp.0_3, .Lcpi_end3-__arm_cp.0_3
.LCPI0_4:
.L__const.CLK_GetPLLClockFreq.au8NoTbl:
	.ascii	"\001\002\002\004"
__arm_cp.0_5:
	.long	PllClock
.Lcpi_end4:
	.size	__arm_cp.0_5, .Lcpi_end4-__arm_cp.0_5
__arm_cp.0_6:
	.long	gau32ClkSrcTbl
.Lcpi_end5:
	.size	__arm_cp.0_6, .Lcpi_end5-__arm_cp.0_6
__arm_cp.0_7:
	.long	SystemCoreClock
.Lcpi_end6:
	.size	__arm_cp.0_7, .Lcpi_end6-__arm_cp.0_7
__arm_cp.0_8:
	.long	500000                          @ 0x7a120
.Lcpi_end7:
	.size	__arm_cp.0_8, .Lcpi_end7-__arm_cp.0_8
__arm_cp.0_9:
	.long	1000000                         @ 0xf4240
.Lcpi_end8:
	.size	__arm_cp.0_9, .Lcpi_end8-__arm_cp.0_9
__arm_cp.0_10:
	.long	CyclesPerUs
.Lcpi_end9:
	.size	__arm_cp.0_10, .Lcpi_end9-__arm_cp.0_10
.Lfunc_end0:
	.size	SystemCoreClockUpdate, .Lfunc_end0-SystemCoreClockUpdate
	.cfi_endproc
	.cantunwind
	.fnend
                                        @ -- End function
	.section	.text.SystemInit,"ax",%progbits
	.hidden	SystemInit                      @ -- Begin function SystemInit
	.globl	SystemInit
	.p2align	2
	.type	SystemInit,%function
	.code	16                              @ @SystemInit
	.thumb_func
SystemInit:
.Lfunc_begin1:
	.loc	2 82 0 is_stmt 1                @ ../../M031BSP/Library/Device/Nuvoton/M031/Source/system_M031Series.c:82:0
	.fnstart
	.cfi_startproc
@ %bb.0:
	.save	{r4, lr}
	push	{r4, lr}
	.cfi_def_cfa_offset 8
	.cfi_offset lr, -4
	.cfi_offset r4, -8
	ldr	r0, __arm_cp.1_0
.LBB1_1:                                @ =>This Inner Loop Header: Depth=1
	movs	r1, #89
.Ltmp25:
	.file	6 "C:\\Nuvoton_ws\\M032GK_GPIO_LED_1\\Keil" "../../M031BSP/Library/StdDriver/inc\\sys.h"
	.loc	6 1346 22 prologue_end          @ ../../M031BSP/Library/StdDriver/inc\sys.h:1346:22
	str	r1, [r0]
	movs	r2, #22
	.loc	6 1347 22                       @ ../../M031BSP/Library/StdDriver/inc\sys.h:1347:22
	str	r2, [r0]
	movs	r3, #136
	.loc	6 1348 22                       @ ../../M031BSP/Library/StdDriver/inc\sys.h:1348:22
	str	r3, [r0]
.Ltmp26:
	.loc	6 1349 19                       @ ../../M031BSP/Library/StdDriver/inc\sys.h:1349:19
	ldr	r4, [r0]
.Ltmp27:
	.loc	6 1349 5 is_stmt 0              @ ../../M031BSP/Library/StdDriver/inc\sys.h:1349:5
	cmp	r4, #0
	bne	.LBB1_5
@ %bb.2:                                @   in Loop: Header=BB1_1 Depth=1
	.loc	6 1346 22 is_stmt 1             @ ../../M031BSP/Library/StdDriver/inc\sys.h:1346:22
	str	r1, [r0]
	.loc	6 1347 22                       @ ../../M031BSP/Library/StdDriver/inc\sys.h:1347:22
	str	r2, [r0]
	.loc	6 1348 22                       @ ../../M031BSP/Library/StdDriver/inc\sys.h:1348:22
	str	r3, [r0]
.Ltmp28:
	.loc	6 1349 19                       @ ../../M031BSP/Library/StdDriver/inc\sys.h:1349:19
	ldr	r4, [r0]
.Ltmp29:
	.loc	6 1349 5 is_stmt 0              @ ../../M031BSP/Library/StdDriver/inc\sys.h:1349:5
	cmp	r4, #0
	bne	.LBB1_5
@ %bb.3:                                @   in Loop: Header=BB1_1 Depth=1
	.loc	6 1346 22 is_stmt 1             @ ../../M031BSP/Library/StdDriver/inc\sys.h:1346:22
	str	r1, [r0]
	.loc	6 1347 22                       @ ../../M031BSP/Library/StdDriver/inc\sys.h:1347:22
	str	r2, [r0]
	.loc	6 1348 22                       @ ../../M031BSP/Library/StdDriver/inc\sys.h:1348:22
	str	r3, [r0]
.Ltmp30:
	.loc	6 1349 19                       @ ../../M031BSP/Library/StdDriver/inc\sys.h:1349:19
	ldr	r4, [r0]
.Ltmp31:
	.loc	6 1349 5 is_stmt 0              @ ../../M031BSP/Library/StdDriver/inc\sys.h:1349:5
	cmp	r4, #0
	bne	.LBB1_5
@ %bb.4:                                @   in Loop: Header=BB1_1 Depth=1
	.loc	6 1346 22 is_stmt 1             @ ../../M031BSP/Library/StdDriver/inc\sys.h:1346:22
	str	r1, [r0]
	.loc	6 1347 22                       @ ../../M031BSP/Library/StdDriver/inc\sys.h:1347:22
	str	r2, [r0]
	.loc	6 1348 22                       @ ../../M031BSP/Library/StdDriver/inc\sys.h:1348:22
	str	r3, [r0]
.Ltmp32:
	.loc	6 1349 19                       @ ../../M031BSP/Library/StdDriver/inc\sys.h:1349:19
	ldr	r1, [r0]
.Ltmp33:
	.loc	6 1349 5 is_stmt 0              @ ../../M031BSP/Library/StdDriver/inc\sys.h:1349:5
	cmp	r1, #0
	beq	.LBB1_1
.Ltmp34:
.LBB1_5:
	.loc	6 0 5                           @ ../../M031BSP/Library/StdDriver/inc\sys.h:0:5
	movs	r1, #7
	lsls	r1, r1, #20
	ldr	r2, __arm_cp.1_1
	.loc	2 87 24 is_stmt 1               @ ../../M031BSP/Library/Device/Nuvoton/M031/Source/system_M031Series.c:87:24
	ldr	r3, [r2]
	.loc	2 87 31 is_stmt 0               @ ../../M031BSP/Library/Device/Nuvoton/M031/Source/system_M031Series.c:87:31
	bics	r3, r1
	.loc	2 87 17                         @ ../../M031BSP/Library/Device/Nuvoton/M031/Source/system_M031Series.c:87:17
	str	r3, [r2]
.Ltmp35:
	.loc	2 106 21 is_stmt 1              @ ../../M031BSP/Library/Device/Nuvoton/M031/Source/system_M031Series.c:106:21
	ldr	r3, [r2]
	orrs	r3, r1
	str	r3, [r2]
	movs	r1, #0
.Ltmp36:
	.loc	6 1362 18                       @ ../../M031BSP/Library/StdDriver/inc\sys.h:1362:18
	str	r1, [r0]
.Ltmp37:
	.loc	2 111 1 epilogue_begin          @ ../../M031BSP/Library/Device/Nuvoton/M031/Source/system_M031Series.c:111:1
	pop	{r4, pc}
.Ltmp38:
	.p2align	2
@ %bb.6:
	.loc	2 0 1 is_stmt 0                 @ ../../M031BSP/Library/Device/Nuvoton/M031/Source/system_M031Series.c:0:1
__arm_cp.1_0:
	.long	1073742080                      @ 0x40000100
.Lcpi_end10:
	.size	__arm_cp.1_0, .Lcpi_end10-__arm_cp.1_0
__arm_cp.1_1:
	.long	1073742336                      @ 0x40000200
.Lcpi_end11:
	.size	__arm_cp.1_1, .Lcpi_end11-__arm_cp.1_1
.Lfunc_end1:
	.size	SystemInit, .Lfunc_end1-SystemInit
	.cfi_endproc
	.cantunwind
	.fnend
                                        @ -- End function
	.hidden	SystemCoreClock                 @ @SystemCoreClock
	.type	SystemCoreClock,%object
	.section	.data.SystemCoreClock,"aw",%progbits
	.globl	SystemCoreClock
	.p2align	2, 0x0
SystemCoreClock:
	.long	96000000                        @ 0x5b8d800
	.size	SystemCoreClock, 4

	.hidden	CyclesPerUs                     @ @CyclesPerUs
	.type	CyclesPerUs,%object
	.section	.data.CyclesPerUs,"aw",%progbits
	.globl	CyclesPerUs
	.p2align	2, 0x0
CyclesPerUs:
	.long	96                              @ 0x60
	.size	CyclesPerUs, 4

	.hidden	PllClock                        @ @PllClock
	.type	PllClock,%object
	.section	.data.PllClock,"aw",%progbits
	.globl	PllClock
	.p2align	2, 0x0
PllClock:
	.long	96000000                        @ 0x5b8d800
	.size	PllClock, 4

	.hidden	gau32ClkSrcTbl                  @ @gau32ClkSrcTbl
	.type	gau32ClkSrcTbl,%object
	.section	.rodata.gau32ClkSrcTbl,"a",%progbits
	.globl	gau32ClkSrcTbl
	.p2align	2, 0x0
gau32ClkSrcTbl:
	.long	32000000                        @ 0x1e84800
	.long	32768                           @ 0x8000
	.long	96000000                        @ 0x5b8d800
	.long	38400                           @ 0x9600
	.long	48000000                        @ 0x2dc6c00
	.long	0                               @ 0x0
	.long	0                               @ 0x0
	.long	48000000                        @ 0x2dc6c00
	.size	gau32ClkSrcTbl, 32

	.section	".note.GNU-stack","",%progbits
	.eabi_attribute	30, 1	@ Tag_ABI_optimization_goals
	.ARM_attribute	16, 1	@ Tag_AV_eba