	.text
	.syntax unified
	.eabi_attribute	67, "2.09"	@ Tag_conformance
	.cpu	cortex-m0
	.eabi_attribute	6, 12	@ Tag_CPU_arch
	.eabi_attribute	7, 77	@ Tag_CPU_arch_profile
	.eabi_attribute	8, 0	@ Tag_ARM_ISA_use
	.eabi_attribute	9, 1	@ Tag_THUMB_ISA_use
	.eabi_attribute	34, 0	@ Tag_CPU_unaligned_access
	.eabi_attribute	17, 1	@ Tag_ABI_PCS_GOT_use
	.eabi_attribute	20, 2	@ Tag_ABI_FP_denormal
	.eabi_attribute	21, 0	@ Tag_ABI_FP_exceptions
	.eabi_attribute	23, 1	@ Tag_ABI_FP_number_model
	.eabi_attribute	24, 1	@ Tag_ABI_align_needed
	.eabi_attribute	25, 1	@ Tag_ABI_align_preserved
	.eabi_attribute	38, 1	@ Tag_ABI_FP_16bit_format
	.eabi_attribute	18, 2	@ Tag_ABI_PCS_wchar_t
	.eabi_attribute	26, 1	@ Tag_ABI_enum_size
	.eabi_attribute	14, 0	@ Tag_ABI_PCS_R9_use
	.file	"main.c"
	.file	1 "C:\\Users\\mgokce\\AppData\\Local\\Keil_v5\\ARM\\ARMCLANG\\bin\\..\\include" "stdint.h"
	.file	2 "C:\\Nuvoton_ws\\M032GK_UART_1\\Keil" "../main.c"
	.file	3 "C:\\Nuvoton_ws\\M032GK_UART_1\\Keil" "../../M031BSP/Library/Device/Nuvoton/M031/Include\\M031Series.h"
	.file	4 "C:\\Nuvoton_ws\\M032GK_UART_1\\Keil" "../../M031BSP/Library/Device/Nuvoton/M031/Include\\gpio_reg.h"
	.file	5 "C:\\Nuvoton_ws\\M032GK_UART_1\\Keil" "../../M031BSP/Library/Device/Nuvoton/M031/Include\\uart_reg.h"
	.file	6 "C:\\Nuvoton_ws\\M032GK_UART_1\\Keil" "../../M031BSP/Library/CMSIS/Core/Include\\core_cm0.h"
	.section	.text.led_write,"ax",%progbits
	.hidden	led_write                       @ -- Begin function led_write
	.globl	led_write
	.p2align	2
	.type	led_write,%function
	.code	16                              @ @led_write
	.thumb_func
led_write:
.Lfunc_begin0:
	.loc	2 33 0                          @ ../main.c:33:0
	.fnstart
	.cfi_sections .debug_frame
	.cfi_startproc
@ %bb.0:
	@DEBUG_VALUE: led_write:mask <- $r0
	movs	r1, #1
.Ltmp0:
	.loc	2 35 15 prologue_end            @ ../main.c:35:15
	ands	r1, r0
	ldr	r2, __arm_cp.0_0
	.loc	2 35 7 is_stmt 0                @ ../main.c:35:7
	str	r1, [r2, #8]
	.loc	2 36 9 is_stmt 1                @ ../main.c:36:9
	lsls	r1, r0, #30
	lsrs	r1, r1, #31
	.loc	2 36 7 is_stmt 0                @ ../main.c:36:7
	str	r1, [r2, #4]
	.loc	2 37 9 is_stmt 1                @ ../main.c:37:9
	lsls	r1, r0, #29
	lsrs	r1, r1, #31
	.loc	2 37 7 is_stmt 0                @ ../main.c:37:7
	str	r1, [r2]
	.loc	2 38 9 is_stmt 1                @ ../main.c:38:9
	lsls	r0, r0, #28
.Ltmp1:
	@DEBUG_VALUE: led_write:mask <- [DW_OP_LLVM_entry_value 1] $r0
	lsrs	r0, r0, #31
	.loc	2 38 7 is_stmt 0                @ ../main.c:38:7
	str	r0, [r2, #32]
	.loc	2 39 1 is_stmt 1                @ ../main.c:39:1
	bx	lr
.Ltmp2:
	.p2align	2
@ %bb.1:
	.loc	2 0 1 is_stmt 0                 @ ../main.c:0:1
__arm_cp.0_0:
	.long	1073760600                      @ 0x40004958
.Lcpi_end0:
	.size	__arm_cp.0_0, .Lcpi_end0-__arm_cp.0_0
.Lfunc_end0:
	.size	led_write, .Lfunc_end0-led_write
	.cfi_endproc
	.cantunwind
	.fnend
                                        @ -- End function
	.section	.text.main,"ax",%progbits
	.hidden	main                            @ -- Begin function main
	.globl	main
	.p2align	2
	.type	main,%function
	.code	16                              @ @main
	.thumb_func
main:
.Lfunc_begin1:
	.loc	2 49 0 is_stmt 1                @ ../main.c:49:0
	.fnstart
	.cfi_startproc
@ %bb.0:
	.pad	#32
	sub	sp, #32
	.cfi_def_cfa_offset 32
.Ltmp3:
	.loc	2 50 3 prologue_end             @ ../main.c:50:3
	bl	clk_config_init
.Ltmp4:
	.loc	2 51 3                          @ ../main.c:51:3
	bl	pin_config_init
.Ltmp5:
	.loc	2 0 3 is_stmt 0                 @ ../main.c:0:3
	movs	r4, #1
	lsls	r1, r4, #8
	ldr	r5, __arm_cp.1_0
	.loc	2 53 4 is_stmt 1                @ ../main.c:53:4
	mov	r0, r5
	mov	r2, r4
	bl	GPIO_SetMode
.Ltmp6:
	.loc	2 0 4 is_stmt 0                 @ ../main.c:0:4
	movs	r1, #128
	.loc	2 54 4 is_stmt 1                @ ../main.c:54:4
	mov	r0, r5
	mov	r2, r4
	bl	GPIO_SetMode
.Ltmp7:
	.loc	2 0 4 is_stmt 0                 @ ../main.c:0:4
	movs	r1, #64
	.loc	2 55 4 is_stmt 1                @ ../main.c:55:4
	mov	r0, r5
	mov	r2, r4
	bl	GPIO_SetMode
.Ltmp8:
	.loc	2 0 4 is_stmt 0                 @ ../main.c:0:4
	lsls	r1, r4, #14
	.loc	2 56 4 is_stmt 1                @ ../main.c:56:4
	mov	r0, r5
	mov	r2, r4
	bl	GPIO_SetMode
.Ltmp9:
	.loc	2 0 4 is_stmt 0                 @ ../main.c:0:4
	ldr	r6, __arm_cp.1_1
	.loc	2 58 4 is_stmt 1                @ ../main.c:58:4
	mov	r0, r6
	subs	r0, #64
	movs	r1, #2
	movs	r5, #0
	mov	r2, r5
	bl	GPIO_SetMode
.Ltmp10:
	.loc	2 0 4 is_stmt 0                 @ ../main.c:0:4
	lsls	r1, r4, #12
	.loc	2 59 4 is_stmt 1                @ ../main.c:59:4
	mov	r0, r6
	mov	r2, r5
	bl	GPIO_SetMode
.Ltmp11:
	.loc	2 0 4 is_stmt 0                 @ ../main.c:0:4
	lsls	r1, r4, #11
	.loc	2 60 4 is_stmt 1                @ ../main.c:60:4
	mov	r0, r6
	mov	r2, r5
	bl	GPIO_SetMode
.Ltmp12:
	.loc	2 0 4 is_stmt 0                 @ ../main.c:0:4
	lsls	r1, r4, #10
	.loc	2 64 5 is_stmt 1                @ ../main.c:64:5
	mov	r0, r6
	mov	r2, r5
	bl	GPIO_SetMode
.Ltmp13:
	.loc	2 0 5 is_stmt 0                 @ ../main.c:0:5
	str	r4, [sp]                        @ 4-byte Spill
	lsls	r2, r4, #16
	movs	r7, #10
	.loc	2 65 5 is_stmt 1                @ ../main.c:65:5
	mov	r0, r6
	mov	r1, r7
	bl	GPIO_EnableInt
.Ltmp14:
	@DEBUG_VALUE: __NVIC_EnableIRQ:IRQn <- 5
	.loc	6 643 5                         @ ../../M031BSP/Library/CMSIS/Core/Include\core_cm0.h:643:5
	@APP
	@NO_APP
	ldr	r0, __arm_cp.1_2
	movs	r1, #32
	.loc	6 644 20                        @ ../../M031BSP/Library/CMSIS/Core/Include\core_cm0.h:644:20
	str	r1, [r0]
	.loc	6 645 5                         @ ../../M031BSP/Library/CMSIS/Core/Include\core_cm0.h:645:5
	@APP
	@NO_APP
	ldr	r0, __arm_cp.1_3
	movs	r1, #58
.Ltmp15:
	.loc	2 69 5                          @ ../main.c:69:5
	str	r1, [r0]
	.loc	2 70 5                          @ ../main.c:70:5
	ldr	r0, [r6, #20]
	orrs	r0, r7
	str	r0, [r6, #20]
	ldr	r0, __arm_cp.1_4
	.loc	2 73 7                          @ ../main.c:73:7
	str	r5, [r0, #8]
	.loc	2 74 7                          @ ../main.c:74:7
	str	r5, [r0, #4]
	.loc	2 75 7                          @ ../main.c:75:7
	str	r5, [r0]
	.loc	2 76 7                          @ ../main.c:76:7
	str	r5, [r0, #32]
	movs	r0, #225
	lsls	r1, r0, #9
	ldr	r0, __arm_cp.1_5
	.loc	2 84 5                          @ ../main.c:84:5
	bl	UART_Open
.Ltmp16:
	.loc	2 89 11                         @ ../main.c:89:11
	adr	r0, .LCPI1_6
	add	r1, sp, #4
	mov	r2, r1
	ldm	r0!, {r3, r4, r7}
	stm	r2!, {r3, r4, r7}
	ldm	r0!, {r3, r4, r6, r7}
	stm	r2!, {r3, r4, r6, r7}
.Ltmp17:
	@DEBUG_VALUE: main:pu8TxBuf <- [DW_OP_plus_uconst 4, DW_OP_deref] $sp
	.loc	2 0 11 is_stmt 0                @ ../main.c:0:11
	movs	r2, #30
	.loc	2 91 4 is_stmt 1                @ ../main.c:91:4
	ldr	r0, __arm_cp.1_5
	bl	UART_Write
.Ltmp18:
	.loc	2 95 7                          @ ../main.c:95:7
	ldr	r6, __arm_cp.1_7
	ldrb	r0, [r6]
	ldr	r7, __arm_cp.1_8
	ldr	r4, __arm_cp.1_9
.Ltmp19:
.LBB1_1:                                @ =>This Inner Loop Header: Depth=1
	@DEBUG_VALUE: main:pu8TxBuf <- [DW_OP_plus_uconst 4, DW_OP_deref] $sp
	.loc	2 95 7 is_stmt 0                @ ../main.c:95:7
	cmp	r0, #0
	mov	r0, r5
	beq	.LBB1_3
.Ltmp20:
@ %bb.2:                                @   in Loop: Header=BB1_1 Depth=1
	@DEBUG_VALUE: main:pu8TxBuf <- [DW_OP_plus_uconst 4, DW_OP_deref] $sp
	.loc	2 96 5 is_stmt 1                @ ../main.c:96:5
	bl	play_selected_animation
.Ltmp21:
	.loc	2 95 7                          @ ../main.c:95:7
	ldrb	r0, [r6]
.Ltmp22:
.LBB1_3:                                @   in Loop: Header=BB1_1 Depth=1
	@DEBUG_VALUE: main:pu8TxBuf <- [DW_OP_plus_uconst 4, DW_OP_deref] $sp
	.loc	2 100 8                         @ ../main.c:100:8
	ldr	r1, [r7]
.Ltmp23:
	.loc	2 100 7 is_stmt 0               @ ../main.c:100:7
	cmp	r1, #0
	bne	.LBB1_7
.Ltmp24:
@ %bb.4:                                @   in Loop: Header=BB1_1 Depth=1
	@DEBUG_VALUE: main:pu8TxBuf <- [DW_OP_plus_uconst 4, DW_OP_deref] $sp
	.loc	2 101 17 is_stmt 1              @ ../main.c:101:17
	ldrb	r1, [r4]
	adds	r1, r1, #1
	uxtb	r2, r1
	.loc	2 102 8                         @ ../main.c:102:8
	cmp	r2, #4
	bls	.LBB1_6
.Ltmp25:
@ %bb.5:                                @   in Loop: Header=BB1_1 Depth=1
	@DEBUG_VALUE: main:pu8TxBuf <- [DW_OP_plus_uconst 4, DW_OP_deref] $sp
	.loc	2 0 8 is_stmt 0                 @ ../main.c:0:8
	movs	r1, #1
.Ltmp26:
.LBB1_6:                                @   in Loop: Header=BB1_1 Depth=1
	@DEBUG_VALUE: main:pu8TxBuf <- [DW_OP_plus_uconst 4, DW_OP_deref] $sp
	strb	r1, [r4]
.Ltmp27:
.LBB1_7:                                @   in Loop: Header=BB1_1 Depth=1
	@DEBUG_VALUE: main:pu8TxBuf <- [DW_OP_plus_uconst 4, DW_OP_deref] $sp
	.loc	2 106 8 is_stmt 1               @ ../main.c:106:8
	ldr	r1, [r7, #108]
.Ltmp28:
	.loc	2 106 7 is_stmt 0               @ ../main.c:106:7
	cmp	r1, #0
	bne	.LBB1_11
.Ltmp29:
@ %bb.8:                                @   in Loop: Header=BB1_1 Depth=1
	@DEBUG_VALUE: main:pu8TxBuf <- [DW_OP_plus_uconst 4, DW_OP_deref] $sp
	.loc	2 107 17 is_stmt 1              @ ../main.c:107:17
	ldrb	r1, [r4]
	subs	r1, r1, #1
	.loc	2 108 8                         @ ../main.c:108:8
	lsls	r2, r1, #24
	bne	.LBB1_10
.Ltmp30:
@ %bb.9:                                @   in Loop: Header=BB1_1 Depth=1
	@DEBUG_VALUE: main:pu8TxBuf <- [DW_OP_plus_uconst 4, DW_OP_deref] $sp
	.loc	2 0 8 is_stmt 0                 @ ../main.c:0:8
	movs	r1, #4
.Ltmp31:
.LBB1_10:                               @   in Loop: Header=BB1_1 Depth=1
	@DEBUG_VALUE: main:pu8TxBuf <- [DW_OP_plus_uconst 4, DW_OP_deref] $sp
	strb	r1, [r4]
.Ltmp32:
.LBB1_11:                               @   in Loop: Header=BB1_1 Depth=1
	@DEBUG_VALUE: main:pu8TxBuf <- [DW_OP_plus_uconst 4, DW_OP_deref] $sp
	.loc	2 113 8 is_stmt 1               @ ../main.c:113:8
	ldr	r1, [r7, #104]
.Ltmp33:
	.loc	2 113 7 is_stmt 0               @ ../main.c:113:7
	cmp	r1, #0
	bne	.LBB1_1
.Ltmp34:
@ %bb.12:                               @   in Loop: Header=BB1_1 Depth=1
	@DEBUG_VALUE: main:pu8TxBuf <- [DW_OP_plus_uconst 4, DW_OP_deref] $sp
	.loc	2 0 7                           @ ../main.c:0:7
	ldr	r0, [sp]                        @ 4-byte Reload
.Ltmp35:
	.loc	2 114 20 is_stmt 1              @ ../main.c:114:20
	strb	r0, [r6]
	b	.LBB1_1
.Ltmp36:
	.p2align	2
@ %bb.13:
	.loc	2 0 20 is_stmt 0                @ ../main.c:0:20
__arm_cp.1_0:
	.long	1073758528                      @ 0x40004140
.Lcpi_end1:
	.size	__arm_cp.1_0, .Lcpi_end1-__arm_cp.1_0
__arm_cp.1_1:
	.long	1073758336                      @ 0x40004080
.Lcpi_end2:
	.size	__arm_cp.1_1, .Lcpi_end2-__arm_cp.1_1
__arm_cp.1_2:
	.long	3758153984                      @ 0xe000e100
.Lcpi_end3:
	.size	__arm_cp.1_2, .Lcpi_end3-__arm_cp.1_2
__arm_cp.1_3:
	.long	1073759296                      @ 0x40004440
.Lcpi_end4:
	.size	__arm_cp.1_3, .Lcpi_end4-__arm_cp.1_3
__arm_cp.1_4:
	.long	1073760600                      @ 0x40004958
.Lcpi_end5:
	.size	__arm_cp.1_4, .Lcpi_end5-__arm_cp.1_4
__arm_cp.1_5:
	.long	1074200576                      @ 0x40070000
.Lcpi_end6:
	.size	__arm_cp.1_5, .Lcpi_end6-__arm_cp.1_5
.LCPI1_6:
.L__const.main.pu8TxBuf:
	.asciz	"MERHABA MEKATRONIKCILER \n\t\000"
__arm_cp.1_7:
	.long	anim_play_state
.Lcpi_end7:
	.size	__arm_cp.1_7, .Lcpi_end7-__arm_cp.1_7
__arm_cp.1_8:
	.long	1073760324                      @ 0x40004844
.Lcpi_end8:
	.size	__arm_cp.1_8, .Lcpi_end8-__arm_cp.1_8
__arm_cp.1_9:
	.long	curr_num_num
.Lcpi_end9:
	.size	__arm_cp.1_9, .Lcpi_end9-__arm_cp.1_9
.Lfunc_end1:
	.size	main, .Lfunc_end1-main
	.cfi_endproc
	.cantunwind
	.fnend
                                        @ -- End function
	.section	.text.play_selected_animation,"ax",%progbits
	.hidden	play_selected_animation         @ -- Begin function play_selected_animation
	.globl	play_selected_animation
	.p2align	2
	.type	play_selected_animation,%function
	.code	16                              @ @play_selected_animation
	.thumb_func
play_selected_animation:
.Lfunc_begin2:
	.loc	2 212 0 is_stmt 1               @ ../main.c:212:0
	.fnstart
	.cfi_startproc
@ %bb.0:
	.save	{r4, r5, r6, r7, lr}
	push	{r4, r5, r6, r7, lr}
	.cfi_def_cfa_offset 20
	.cfi_offset lr, -4
	.cfi_offset r7, -8
	.cfi_offset r6, -12
	.cfi_offset r5, -16
	.cfi_offset r4, -20
	.pad	#12
	sub	sp, #12
	.cfi_def_cfa_offset 32
.Ltmp37:
	.loc	2 213 5 prologue_end            @ ../main.c:213:5
	ldr	r4, __arm_cp.2_0
	ldrb	r0, [r4]
.Ltmp38:
	.loc	2 213 5 is_stmt 0               @ ../main.c:213:5
	cmp	r0, #2
	beq	.LBB2_22
@ %bb.1:
	cmp	r0, #1
	bne	.LBB2_23
@ %bb.2:
	.loc	2 0 5                           @ ../main.c:0:5
	movs	r7, #1
	lsls	r1, r7, #16
	movs	r2, #0
	ldr	r5, __arm_cp.2_3
	str	r2, [sp]                        @ 4-byte Spill
	b	.LBB2_4
.LBB2_3:                                @   in Loop: Header=BB2_4 Depth=1
.Ltmp39:
	@DEBUG_VALUE: CLK_SysTickDelay:us <- 100000
	@DEBUG_VALUE: i <- [DW_OP_plus_uconst 8] [$sp+0]
	.file	7 "C:\\Nuvoton_ws\\M032GK_UART_1\\Keil" "../../M031BSP/Library/StdDriver/inc\\clk.h"
	.loc	7 530 19 is_stmt 1              @ ../../M031BSP/Library/StdDriver/inc\clk.h:530:19
	str	r3, [r5]
	ldr	r0, [sp, #8]                    @ 4-byte Reload
.Ltmp40:
	.loc	2 143 26                        @ ../main.c:143:26
	adds	r2, r0, #1
.Ltmp41:
	@DEBUG_VALUE: i <- $r2
	.loc	2 143 2 is_stmt 0               @ ../main.c:143:2
	cmp	r0, #15
	bhs	.LBB2_27
.Ltmp42:
.LBB2_4:                                @ =>This Loop Header: Depth=1
                                        @     Child Loop BB2_6 Depth 2
                                        @     Child Loop BB2_15 Depth 2
	.loc	2 0 2                           @ ../main.c:0:2
	str	r2, [sp, #8]                    @ 4-byte Spill
	movs	r6, #1
	ldr	r0, __arm_cp.2_2
.Ltmp43:
	@DEBUG_VALUE: led_write:mask <- 3
	@DEBUG_VALUE: i <- [DW_OP_plus_uconst 8] [$sp+0]
	.loc	2 35 7 is_stmt 1                @ ../main.c:35:7
	str	r6, [r0, #8]
	.loc	2 36 7                          @ ../main.c:36:7
	str	r6, [r0, #4]
	ldr	r3, [sp]                        @ 4-byte Reload
	.loc	2 37 7                          @ ../main.c:37:7
	str	r3, [r0]
	.loc	2 38 7                          @ ../main.c:38:7
	str	r3, [r0, #32]
.Ltmp44:
	.loc	7 516 26                        @ ../../M031BSP/Library/StdDriver/inc\clk.h:516:26
	ldr	r0, __arm_cp.2_4
	ldr	r0, [r0]
	.loc	7 516 24 is_stmt 0              @ ../../M031BSP/Library/StdDriver/inc\clk.h:516:24
	ldr	r2, __arm_cp.2_1
	muls	r0, r2, r0
.Ltmp45:
	@DEBUG_VALUE: CLK_SysTickDelay:us <- 100000
	.loc	7 514 30 is_stmt 1              @ ../../M031BSP/Library/StdDriver/inc\clk.h:514:30
	ldr	r2, __arm_cp.2_5
	ldr	r2, [r2]
	.loc	7 516 19                        @ ../../M031BSP/Library/StdDriver/inc\clk.h:516:19
	str	r0, [r5, #4]
	.loc	7 517 19                        @ ../../M031BSP/Library/StdDriver/inc\clk.h:517:19
	str	r3, [r5, #8]
	movs	r0, #5
	str	r0, [sp, #4]                    @ 4-byte Spill
	.loc	7 518 19                        @ ../../M031BSP/Library/StdDriver/inc\clk.h:518:19
	str	r0, [r5]
	.loc	7 514 46                        @ ../../M031BSP/Library/StdDriver/inc\clk.h:514:46
	lsls	r0, r2, #1
.Ltmp46:
	@DEBUG_VALUE: CLK_SysTickDelay:u32TimeOutCnt <- $r0
	.loc	7 0 46 is_stmt 0                @ ../../M031BSP/Library/StdDriver/inc\clk.h:0:46
	movs	r2, #4
	.loc	7 521 5 is_stmt 1               @ ../../M031BSP/Library/StdDriver/inc\clk.h:521:5
	subs	r3, r2, r0
	b	.LBB2_6
.Ltmp47:
.LBB2_5:                                @   in Loop: Header=BB2_6 Depth=2
	@DEBUG_VALUE: CLK_SysTickDelay:us <- 100000
	@DEBUG_VALUE: i <- [DW_OP_plus_uconst 8] [$sp+0]
	adds	r3, r3, #4
	cmp	r0, #1
	beq	.LBB2_13
.Ltmp48:
.LBB2_6:                                @   Parent Loop BB2_4 Depth=1
                                        @ =>  This Inner Loop Header: Depth=2
	@DEBUG_VALUE: CLK_SysTickDelay:us <- 100000
	@DEBUG_VALUE: i <- [DW_OP_plus_uconst 8] [$sp+0]
	@DEBUG_VALUE: CLK_SysTickDelay:u32TimeOutCnt <- [DW_OP_LLVM_arg 0, DW_OP_consts 4, DW_OP_consts 18446744073709551614, DW_OP_LLVM_arg 0, DW_OP_mul, DW_OP_plus, DW_OP_minus, DW_OP_consts 4, DW_OP_div, DW_OP_consts 18446744073709551612, DW_OP_mul, DW_OP_consts 2, DW_OP_LLVM_arg 0, DW_OP_mul, DW_OP_plus, DW_OP_stack_value] undef
	.loc	7 521 22 is_stmt 0              @ ../../M031BSP/Library/StdDriver/inc\clk.h:521:22
	ldr	r0, [r5]
.Ltmp49:
	@DEBUG_VALUE: CLK_SysTickDelay:u32TimeOutCnt <- [DW_OP_constu 1, DW_OP_minus, DW_OP_stack_value] $r3
	.loc	7 521 5                         @ ../../M031BSP/Library/StdDriver/inc\clk.h:521:5
	tst	r0, r1
	bne	.LBB2_13
.Ltmp50:
@ %bb.7:                                @   in Loop: Header=BB2_6 Depth=2
	@DEBUG_VALUE: CLK_SysTickDelay:u32TimeOutCnt <- [DW_OP_constu 1, DW_OP_minus, DW_OP_stack_value] $r3
	@DEBUG_VALUE: CLK_SysTickDelay:us <- 100000
	@DEBUG_VALUE: i <- [DW_OP_plus_uconst 8] [$sp+0]
	@DEBUG_VALUE: CLK_SysTickDelay:u32TimeOutCnt <- [DW_OP_constu 2, DW_OP_minus, DW_OP_stack_value] $r3
	.loc	7 0 5                           @ ../../M031BSP/Library/StdDriver/inc\clk.h:0:5
	subs	r0, r3, #2
	rsbs	r4, r0, #0
	adcs	r4, r0
	.loc	7 521 22                        @ ../../M031BSP/Library/StdDriver/inc\clk.h:521:22
	ldr	r0, [r5]
	.loc	7 521 5                         @ ../../M031BSP/Library/StdDriver/inc\clk.h:521:5
	tst	r0, r1
	mov	r0, r7
	bne	.LBB2_9
.Ltmp51:
@ %bb.8:                                @   in Loop: Header=BB2_6 Depth=2
	@DEBUG_VALUE: CLK_SysTickDelay:u32TimeOutCnt <- [DW_OP_constu 2, DW_OP_minus, DW_OP_stack_value] $r3
	@DEBUG_VALUE: CLK_SysTickDelay:us <- 100000
	@DEBUG_VALUE: i <- [DW_OP_plus_uconst 8] [$sp+0]
	.loc	7 0 5                           @ ../../M031BSP/Library/StdDriver/inc\clk.h:0:5
	mov	r0, r4
.Ltmp52:
.LBB2_9:                                @   in Loop: Header=BB2_6 Depth=2
	@DEBUG_VALUE: CLK_SysTickDelay:u32TimeOutCnt <- [DW_OP_constu 2, DW_OP_minus, DW_OP_stack_value] $r3
	@DEBUG_VALUE: CLK_SysTickDelay:us <- 100000
	@DEBUG_VALUE: i <- [DW_OP_plus_uconst 8] [$sp+0]
	.loc	7 521 5                         @ ../../M031BSP/Library/StdDriver/inc\clk.h:521:5
	cmp	r0, #0
	bne	.LBB2_13
.Ltmp53:
@ %bb.10:                               @   in Loop: Header=BB2_6 Depth=2
	@DEBUG_VALUE: CLK_SysTickDelay:u32TimeOutCnt <- [DW_OP_constu 2, DW_OP_minus, DW_OP_stack_value] $r3
	@DEBUG_VALUE: CLK_SysTickDelay:us <- 100000
	@DEBUG_VALUE: i <- [DW_OP_plus_uconst 8] [$sp+0]
	@DEBUG_VALUE: CLK_SysTickDelay:u32TimeOutCnt <- [DW_OP_constu 2, DW_OP_minus, DW_OP_stack_value] $r3
	.loc	7 521 22                        @ ../../M031BSP/Library/StdDriver/inc\clk.h:521:22
	ldr	r0, [r5]
.Ltmp54:
	@DEBUG_VALUE: CLK_SysTickDelay:u32TimeOutCnt <- [DW_OP_constu 3, DW_OP_minus, DW_OP_stack_value] $r3
	.loc	7 521 5                         @ ../../M031BSP/Library/StdDriver/inc\clk.h:521:5
	tst	r0, r1
	bne	.LBB2_13
.Ltmp55:
@ %bb.11:                               @   in Loop: Header=BB2_6 Depth=2
	@DEBUG_VALUE: CLK_SysTickDelay:u32TimeOutCnt <- [DW_OP_constu 3, DW_OP_minus, DW_OP_stack_value] $r3
	@DEBUG_VALUE: CLK_SysTickDelay:us <- 100000
	@DEBUG_VALUE: i <- [DW_OP_plus_uconst 8] [$sp+0]
	@DEBUG_VALUE: CLK_SysTickDelay:u32TimeOutCnt <- [DW_OP_LLVM_arg 0, DW_OP_consts 4, DW_OP_consts 18446744073709551614, DW_OP_LLVM_arg 0, DW_OP_mul, DW_OP_plus, DW_OP_minus, DW_OP_consts 4, DW_OP_div, DW_OP_consts 18446744073709551612, DW_OP_mul, DW_OP_consts 18446744073709551612, DW_OP_consts 2, DW_OP_LLVM_arg 0, DW_OP_mul, DW_OP_plus, DW_OP_plus, DW_OP_stack_value] undef
	.loc	7 0 5                           @ ../../M031BSP/Library/StdDriver/inc\clk.h:0:5
	rsbs	r4, r3, #0
	adcs	r4, r3
	.loc	7 521 22                        @ ../../M031BSP/Library/StdDriver/inc\clk.h:521:22
	ldr	r0, [r5]
	.loc	7 521 5                         @ ../../M031BSP/Library/StdDriver/inc\clk.h:521:5
	tst	r0, r1
	mov	r0, r7
	bne	.LBB2_5
.Ltmp56:
@ %bb.12:                               @   in Loop: Header=BB2_6 Depth=2
	@DEBUG_VALUE: CLK_SysTickDelay:us <- 100000
	@DEBUG_VALUE: i <- [DW_OP_plus_uconst 8] [$sp+0]
	.loc	7 0 5                           @ ../../M031BSP/Library/StdDriver/inc\clk.h:0:5
	mov	r0, r4
	b	.LBB2_5
.Ltmp57:
.LBB2_13:                               @   in Loop: Header=BB2_4 Depth=1
	@DEBUG_VALUE: CLK_SysTickDelay:us <- 100000
	@DEBUG_VALUE: i <- [DW_OP_plus_uconst 8] [$sp+0]
	movs	r3, #0
	.loc	7 530 19 is_stmt 1              @ ../../M031BSP/Library/StdDriver/inc\clk.h:530:19
	str	r3, [r5]
	ldr	r0, __arm_cp.2_2
.Ltmp58:
	@DEBUG_VALUE: led_write:mask <- 12
	.loc	2 35 7                          @ ../main.c:35:7
	str	r3, [r0, #8]
	.loc	2 36 7                          @ ../main.c:36:7
	str	r3, [r0, #4]
	.loc	2 37 7                          @ ../main.c:37:7
	str	r6, [r0]
	.loc	2 38 7                          @ ../main.c:38:7
	str	r6, [r0, #32]
.Ltmp59:
	.loc	7 516 26                        @ ../../M031BSP/Library/StdDriver/inc\clk.h:516:26
	ldr	r0, __arm_cp.2_4
	ldr	r0, [r0]
	.loc	7 516 24 is_stmt 0              @ ../../M031BSP/Library/StdDriver/inc\clk.h:516:24
	ldr	r4, __arm_cp.2_1
	muls	r0, r4, r0
.Ltmp60:
	@DEBUG_VALUE: CLK_SysTickDelay:us <- 100000
	.loc	7 514 30 is_stmt 1              @ ../../M031BSP/Library/StdDriver/inc\clk.h:514:30
	ldr	r4, __arm_cp.2_5
	ldr	r4, [r4]
	.loc	7 516 19                        @ ../../M031BSP/Library/StdDriver/inc\clk.h:516:19
	str	r0, [r5, #4]
	.loc	7 517 19                        @ ../../M031BSP/Library/StdDriver/inc\clk.h:517:19
	str	r3, [r5, #8]
	.loc	7 518 19                        @ ../../M031BSP/Library/StdDriver/inc\clk.h:518:19
	ldr	r0, [sp, #4]                    @ 4-byte Reload
	str	r0, [r5]
	.loc	7 514 46                        @ ../../M031BSP/Library/StdDriver/inc\clk.h:514:46
	lsls	r0, r4, #1
.Ltmp61:
	@DEBUG_VALUE: CLK_SysTickDelay:u32TimeOutCnt <- $r0
	.loc	7 521 5                         @ ../../M031BSP/Library/StdDriver/inc\clk.h:521:5
	subs	r2, r2, r0
	b	.LBB2_15
.Ltmp62:
.LBB2_14:                               @   in Loop: Header=BB2_15 Depth=2
	@DEBUG_VALUE: CLK_SysTickDelay:us <- 100000
	@DEBUG_VALUE: i <- [DW_OP_plus_uconst 8] [$sp+0]
	adds	r2, r2, #4
	cmp	r0, #1
	beq	.LBB2_3
.Ltmp63:
.LBB2_15:                               @   Parent Loop BB2_4 Depth=1
                                        @ =>  This Inner Loop Header: Depth=2
	@DEBUG_VALUE: CLK_SysTickDelay:us <- 100000
	@DEBUG_VALUE: i <- [DW_OP_plus_uconst 8] [$sp+0]
	@DEBUG_VALUE: CLK_SysTickDelay:u32TimeOutCnt <- [DW_OP_LLVM_arg 0, DW_OP_consts 4, DW_OP_consts 18446744073709551614, DW_OP_LLVM_arg 0, DW_OP_mul, DW_OP_plus, DW_OP_minus, DW_OP_consts 4, DW_OP_div, DW_OP_consts 18446744073709551612, DW_OP_mul, DW_OP_consts 2, DW_OP_LLVM_arg 0, DW_OP_mul, DW_OP_plus, DW_OP_stack_value] undef
	.loc	7 521 22 is_stmt 0              @ ../../M031BSP/Library/StdDriver/inc\clk.h:521:22
	ldr	r0, [r5]
.Ltmp64:
	@DEBUG_VALUE: CLK_SysTickDelay:u32TimeOutCnt <- [DW_OP_constu 1, DW_OP_minus, DW_OP_stack_value] $r2
	.loc	7 521 5                         @ ../../M031BSP/Library/StdDriver/inc\clk.h:521:5
	tst	r0, r1
	bne	.LBB2_3
.Ltmp65:
@ %bb.16:                               @   in Loop: Header=BB2_15 Depth=2
	@DEBUG_VALUE: CLK_SysTickDelay:u32TimeOutCnt <- [DW_OP_constu 1, DW_OP_minus, DW_OP_stack_value] $r2
	@DEBUG_VALUE: CLK_SysTickDelay:us <- 100000
	@DEBUG_VALUE: i <- [DW_OP_plus_uconst 8] [$sp+0]
	@DEBUG_VALUE: CLK_SysTickDelay:u32TimeOutCnt <- [DW_OP_constu 2, DW_OP_minus, DW_OP_stack_value] $r2
	.loc	7 0 5                           @ ../../M031BSP/Library/StdDriver/inc\clk.h:0:5
	subs	r0, r2, #2
	rsbs	r4, r0, #0
	adcs	r4, r0
	.loc	7 521 22                        @ ../../M031BSP/Library/StdDriver/inc\clk.h:521:22
	ldr	r0, [r5]
	.loc	7 521 5                         @ ../../M031BSP/Library/StdDriver/inc\clk.h:521:5
	tst	r0, r1
	mov	r0, r7
	bne	.LBB2_18
.Ltmp66:
@ %bb.17:                               @   in Loop: Header=BB2_15 Depth=2
	@DEBUG_VALUE: CLK_SysTickDelay:u32TimeOutCnt <- [DW_OP_constu 2, DW_OP_minus, DW_OP_stack_value] $r2
	@DEBUG_VALUE: CLK_SysTickDelay:us <- 100000
	@DEBUG_VALUE: i <- [DW_OP_plus_uconst 8] [$sp+0]
	.loc	7 0 5                           @ ../../M031BSP/Library/StdDriver/inc\clk.h:0:5
	mov	r0, r4
.Ltmp67:
.LBB2_18:                               @   in Loop: Header=BB2_15 Depth=2
	@DEBUG_VALUE: CLK_SysTickDelay:u32TimeOutCnt <- [DW_OP_constu 2, DW_OP_minus, DW_OP_stack_value] $r2
	@DEBUG_VALUE: CLK_SysTickDelay:us <- 100000
	@DEBUG_VALUE: i <- [DW_OP_plus_uconst 8] [$sp+0]
	.loc	7 521 5                         @ ../../M031BSP/Library/StdDriver/inc\clk.h:521:5
	cmp	r0, #0
	bne	.LBB2_3
.Ltmp68:
@ %bb.19:                               @   in Loop: Header=BB2_15 Depth=2
	@DEBUG_VALUE: CLK_SysTickDelay:u32TimeOutCnt <- [DW_OP_constu 2, DW_OP_minus, DW_OP_stack_value] $r2
	@DEBUG_VALUE: CLK_SysTickDelay:us <- 100000
	@DEBUG_VALUE: i <- [DW_OP_plus_uconst 8] [$sp+0]
	@DEBUG_VALUE: CLK_SysTickDelay:u32TimeOutCnt <- [DW_OP_constu 2, DW_OP_minus, DW_OP_stack_value] $r2
	.loc	7 521 22                        @ ../../M031BSP/Library/StdDriver/inc\clk.h:521:22
	ldr	r0, [r5]
.Ltmp69:
	@DEBUG_VALUE: CLK_SysTickDelay:u32TimeOutCnt <- [DW_OP_constu 3, DW_OP_minus, DW_OP_stack_value] $r2
	.loc	7 521 5                         @ ../../M031BSP/Library/StdDriver/inc\clk.h:521:5
	tst	r0, r1
	bne	.LBB2_3
.Ltmp70:
@ %bb.20:                               @   in Loop: Header=BB2_15 Depth=2
	@DEBUG_VALUE: CLK_SysTickDelay:u32TimeOutCnt <- [DW_OP_constu 3, DW_OP_minus, DW_OP_stack_value] $r2
	@DEBUG_VALUE: CLK_SysTickDelay:us <- 100000
	@DEBUG_VALUE: i <- [DW_OP_plus_uconst 8] [$sp+0]
	@DEBUG_VALUE: CLK_SysTickDelay:u32TimeOutCnt <- [DW_OP_LLVM_arg 0, DW_OP_consts 4, DW_OP_consts 18446744073709551614, DW_OP_LLVM_arg 0, DW_OP_mul, DW_OP_plus, DW_OP_minus, DW_OP_consts 4, DW_OP_div, DW_OP_consts 18446744073709551612, DW_OP_mul, DW_OP_consts 18446744073709551612, DW_OP_consts 2, DW_OP_LLVM_arg 0, DW_OP_mul, DW_OP_plus, DW_OP_plus, DW_OP_stack_value] undef
	.loc	7 0 5                           @ ../../M031BSP/Library/StdDriver/inc\clk.h:0:5
	rsbs	r4, r2, #0
	adcs	r4, r2
	.loc	7 521 22                        @ ../../M031BSP/Library/StdDriver/inc\clk.h:521:22
	ldr	r0, [r5]
	.loc	7 521 5                         @ ../../M031BSP/Library/StdDriver/inc\clk.h:521:5
	tst	r0, r1
	mov	r0, r7
	bne	.LBB2_14
.Ltmp71:
@ %bb.21:                               @   in Loop: Header=BB2_15 Depth=2
	@DEBUG_VALUE: CLK_SysTickDelay:us <- 100000
	@DEBUG_VALUE: i <- [DW_OP_plus_uconst 8] [$sp+0]
	.loc	7 0 5                           @ ../../M031BSP/Library/StdDriver/inc\clk.h:0:5
	mov	r0, r4
	b	.LBB2_14
.LBB2_22:
.Ltmp72:
	.loc	2 217 2 is_stmt 1               @ ../main.c:217:2
	bl	led_animasyon2
.Ltmp73:
	.loc	2 219 5                         @ ../main.c:219:5
	ldrb	r0, [r4]
.Ltmp74:
.LBB2_23:
	.loc	2 219 5 is_stmt 0               @ ../main.c:219:5
	cmp	r0, #3
	bne	.LBB2_25
@ %bb.24:
.Ltmp75:
	.loc	2 220 2 is_stmt 1               @ ../main.c:220:2
	bl	led_animasyon3
.Ltmp76:
	.loc	2 222 5                         @ ../main.c:222:5
	ldrb	r0, [r4]
.Ltmp77:
.LBB2_25:
	.loc	2 222 5 is_stmt 0               @ ../main.c:222:5
	cmp	r0, #4
	bne	.LBB2_27
@ %bb.26:
.Ltmp78:
	.loc	2 223 2 is_stmt 1               @ ../main.c:223:2
	bl	led_animasyon4
.Ltmp79:
.LBB2_27:
	.loc	2 225 1 epilogue_begin          @ ../main.c:225:1
	add	sp, #12
	pop	{r4, r5, r6, r7, pc}
.Ltmp80:
	.p2align	2
@ %bb.28:
	.loc	2 0 1 is_stmt 0                 @ ../main.c:0:1
__arm_cp.2_0:
	.long	curr_num_num
.Lcpi_end10:
	.size	__arm_cp.2_0, .Lcpi_end10-__arm_cp.2_0
__arm_cp.2_1:
	.long	100000                          @ 0x186a0
.Lcpi_end11:
	.size	__arm_cp.2_1, .Lcpi_end11-__arm_cp.2_1
__arm_cp.2_2:
	.long	1073760600                      @ 0x40004958
.Lcpi_end12:
	.size	__arm_cp.2_2, .Lcpi_end12-__arm_cp.2_2
__arm_cp.2_3:
	.long	3758153744                      @ 0xe000e010
.Lcpi_end13:
	.size	__arm_cp.2_3, .Lcpi_end13-__arm_cp.2_3
__arm_cp.2_4:
	.long	CyclesPerUs
.Lcpi_end14:
	.size	__arm_cp.2_4, .Lcpi_end14-__arm_cp.2_4
__arm_cp.2_5:
	.long	SystemCoreClock
.Lcpi_end15:
	.size	__arm_cp.2_5, .Lcpi_end15-__arm_cp.2_5
.Lfunc_end2:
	.size	play_selected_animation, .Lfunc_end2-play_selected_animation
	.cfi_endproc
	.cantunwind
	.fnend
                                        @ -- End function
	.section	.text.led_animasyon1,"ax",%progbits
	.hidden	led_animasyon1                  @ -- Begin function led_animasyon1
	.globl	led_animasyon1
	.p2align	2
	.type	led_animasyon1,%function
	.code	16                              @ @led_animasyon1
	.thumb_func
led_animasyon1:
.Lfunc_begin3:
	.loc	2 140 0 is_stmt 1               @ ../main.c:140:0
	.fnstart
	.cfi_startproc
@ %bb.0:
	.save	{r4, r5, r6, r7, lr}
	push	{r4, r5, r6, r7, lr}
	.cfi_def_cfa_offset 20
	.cfi_offset lr, -4
	.cfi_offset r7, -8
	.cfi_offset r6, -12
	.cfi_offset r5, -16
	.cfi_offset r4, -20
	.pad	#12
	sub	sp, #12
	.cfi_def_cfa_offset 32
.Ltmp81:
	@DEBUG_VALUE: led_animasyon1:position <- 1
	@DEBUG_VALUE: led_animasyon1:direction <- 1
	@DEBUG_VALUE: i <- 0
	movs	r7, #1
	lsls	r1, r7, #16
	movs	r2, #0
	ldr	r5, __arm_cp.3_2
	str	r2, [sp]                        @ 4-byte Spill
	b	.LBB3_2
.Ltmp82:
.LBB3_1:                                @   in Loop: Header=BB3_2 Depth=1
	@DEBUG_VALUE: CLK_SysTickDelay:us <- 100000
	@DEBUG_VALUE: i <- [DW_OP_plus_uconst 8] [$sp+0]
	@DEBUG_VALUE: led_animasyon1:direction <- 1
	@DEBUG_VALUE: led_animasyon1:position <- 1
	.loc	7 530 19 prologue_end           @ ../../M031BSP/Library/StdDriver/inc\clk.h:530:19
	str	r3, [r5]
	ldr	r0, [sp, #8]                    @ 4-byte Reload
.Ltmp83:
	.loc	2 143 26                        @ ../main.c:143:26
	adds	r2, r0, #1
.Ltmp84:
	@DEBUG_VALUE: i <- $r2
	.loc	2 143 2 is_stmt 0               @ ../main.c:143:2
	cmp	r0, #15
	bhs	.LBB3_20
.Ltmp85:
.LBB3_2:                                @ =>This Loop Header: Depth=1
                                        @     Child Loop BB3_4 Depth 2
                                        @     Child Loop BB3_13 Depth 2
	@DEBUG_VALUE: led_animasyon1:direction <- 1
	@DEBUG_VALUE: led_animasyon1:position <- 1
	.loc	2 0 2                           @ ../main.c:0:2
	str	r2, [sp, #8]                    @ 4-byte Spill
.Ltmp86:
	@DEBUG_VALUE: i <- [DW_OP_plus_uconst 8] [$sp+0]
	movs	r6, #1
	ldr	r0, __arm_cp.3_1
.Ltmp87:
	@DEBUG_VALUE: led_write:mask <- 3
	.loc	2 35 7 is_stmt 1                @ ../main.c:35:7
	str	r6, [r0, #8]
	.loc	2 36 7                          @ ../main.c:36:7
	str	r6, [r0, #4]
	ldr	r3, [sp]                        @ 4-byte Reload
	.loc	2 37 7                          @ ../main.c:37:7
	str	r3, [r0]
	.loc	2 38 7                          @ ../main.c:38:7
	str	r3, [r0, #32]
.Ltmp88:
	.loc	7 516 26                        @ ../../M031BSP/Library/StdDriver/inc\clk.h:516:26
	ldr	r0, __arm_cp.3_3
	ldr	r0, [r0]
	.loc	7 516 24 is_stmt 0              @ ../../M031BSP/Library/StdDriver/inc\clk.h:516:24
	ldr	r2, __arm_cp.3_0
	muls	r0, r2, r0
.Ltmp89:
	@DEBUG_VALUE: CLK_SysTickDelay:us <- 100000
	.loc	7 514 30 is_stmt 1              @ ../../M031BSP/Library/StdDriver/inc\clk.h:514:30
	ldr	r2, __arm_cp.3_4
	ldr	r2, [r2]
	.loc	7 516 19                        @ ../../M031BSP/Library/StdDriver/inc\clk.h:516:19
	str	r0, [r5, #4]
	.loc	7 517 19                        @ ../../M031BSP/Library/StdDriver/inc\clk.h:517:19
	str	r3, [r5, #8]
	movs	r0, #5
	str	r0, [sp, #4]                    @ 4-byte Spill
	.loc	7 518 19                        @ ../../M031BSP/Library/StdDriver/inc\clk.h:518:19
	str	r0, [r5]
	.loc	7 514 46                        @ ../../M031BSP/Library/StdDriver/inc\clk.h:514:46
	lsls	r0, r2, #1
.Ltmp90:
	@DEBUG_VALUE: CLK_SysTickDelay:u32TimeOutCnt <- $r0
	.loc	7 0 46 is_stmt 0                @ ../../M031BSP/Library/StdDriver/inc\clk.h:0:46
	movs	r2, #4
	.loc	7 521 5 is_stmt 1               @ ../../M031BSP/Library/StdDriver/inc\clk.h:521:5
	subs	r3, r2, r0
	b	.LBB3_4
.Ltmp91:
.LBB3_3:                                @   in Loop: Header=BB3_4 Depth=2
	@DEBUG_VALUE: CLK_SysTickDelay:us <- 100000
	@DEBUG_VALUE: i <- [DW_OP_plus_uconst 8] [$sp+0]
	@DEBUG_VALUE: led_animasyon1:direction <- 1
	@DEBUG_VALUE: led_animasyon1:position <- 1
	adds	r3, r3, #4
	cmp	r0, #1
	beq	.LBB3_11
.Ltmp92:
.LBB3_4:                                @   Parent Loop BB3_2 Depth=1
                                        @ =>  This Inner Loop Header: Depth=2
	@DEBUG_VALUE: CLK_SysTickDelay:us <- 100000
	@DEBUG_VALUE: i <- [DW_OP_plus_uconst 8] [$sp+0]
	@DEBUG_VALUE: led_animasyon1:direction <- 1
	@DEBUG_VALUE: led_animasyon1:position <- 1
	@DEBUG_VALUE: CLK_SysTickDelay:u32TimeOutCnt <- [DW_OP_LLVM_arg 0, DW_OP_consts 4, DW_OP_consts 18446744073709551614, DW_OP_LLVM_arg 0, DW_OP_mul, DW_OP_plus, DW_OP_minus, DW_OP_consts 4, DW_OP_div, DW_OP_consts 18446744073709551612, DW_OP_mul, DW_OP_consts 2, DW_OP_LLVM_arg 0, DW_OP_mul, DW_OP_plus, DW_OP_stack_value] undef
	.loc	7 521 22 is_stmt 0              @ ../../M031BSP/Library/StdDriver/inc\clk.h:521:22
	ldr	r0, [r5]
.Ltmp93:
	@DEBUG_VALUE: CLK_SysTickDelay:u32TimeOutCnt <- [DW_OP_constu 1, DW_OP_minus, DW_OP_stack_value] $r3
	.loc	7 521 5                         @ ../../M031BSP/Library/StdDriver/inc\clk.h:521:5
	tst	r0, r1
	bne	.LBB3_11
.Ltmp94:
@ %bb.5:                                @   in Loop: Header=BB3_4 Depth=2
	@DEBUG_VALUE: CLK_SysTickDelay:u32TimeOutCnt <- [DW_OP_constu 1, DW_OP_minus, DW_OP_stack_value] $r3
	@DEBUG_VALUE: CLK_SysTickDelay:us <- 100000
	@DEBUG_VALUE: i <- [DW_OP_plus_uconst 8] [$sp+0]
	@DEBUG_VALUE: led_animasyon1:direction <- 1
	@DEBUG_VALUE: led_animasyon1:position <- 1
	@DEBUG_VALUE: CLK_SysTickDelay:u32TimeOutCnt <- [DW_OP_constu 2, DW_OP_minus, DW_OP_stack_value] $r3
	.loc	7 0 5                           @ ../../M031BSP/Library/StdDriver/inc\clk.h:0:5
	subs	r0, r3, #2
	rsbs	r4, r0, #0
	adcs	r4, r0
	.loc	7 521 22                        @ ../../M031BSP/Library/StdDriver/inc\clk.h:521:22
	ldr	r0, [r5]
	.loc	7 521 5                         @ ../../M031BSP/Library/StdDriver/inc\clk.h:521:5
	tst	r0, r1
	mov	r0, r7
	bne	.LBB3_7
.Ltmp95:
@ %bb.6:                                @   in Loop: Header=BB3_4 Depth=2
	@DEBUG_VALUE: CLK_SysTickDelay:u32TimeOutCnt <- [DW_OP_constu 2, DW_OP_minus, DW_OP_stack_value] $r3
	@DEBUG_VALUE: CLK_SysTickDelay:us <- 100000
	@DEBUG_VALUE: i <- [DW_OP_plus_uconst 8] [$sp+0]
	@DEBUG_VALUE: led_animasyon1:direction <- 1
	@DEBUG_VALUE: led_animasyon1:position <- 1
	.loc	7 0 5                           @ ../../M031BSP/Library/StdDriver/inc\clk.h:0:5
	mov	r0, r4
.Ltmp96:
.LBB3_7:                                @   in Loop: Header=BB3_4 Depth=2
	@DEBUG_VALUE: CLK_SysTickDelay:u32TimeOutCnt <- [DW_OP_constu 2, DW_OP_minus, DW_OP_stack_value] $r3
	@DEBUG_VALUE: CLK_SysTickDelay:us <- 100000
	@DEBUG_VALUE: i <- [DW_OP_plus_uconst 8] [$sp+0]
	@DEBUG_VALUE: led_animasyon1:direction <- 1
	@DEBUG_VALUE: led_animasyon1:position <- 1
	.loc	7 521 5                         @ ../../M031BSP/Library/StdDriver/inc\clk.h:521:5
	cmp	r0, #0
	bne	.LBB3_11
.Ltmp97:
@ %bb.8:                                @   in Loop: Header=BB3_4 Depth=2
	@DEBUG_VALUE: CLK_SysTickDelay:u32TimeOutCnt <- [DW_OP_constu 2, DW_OP_minus, DW_OP_stack_value] $r3
	@DEBUG_VALUE: CLK_SysTickDelay:us <- 100000
	@DEBUG_VALUE: i <- [DW_OP_plus_uconst 8] [$sp+0]
	@DEBUG_VALUE: led_animasyon1:direction <- 1
	@DEBUG_VALUE: led_animasyon1:position <- 1
	@DEBUG_VALUE: CLK_SysTickDelay:u32TimeOutCnt <- [DW_OP_constu 2, DW_OP_minus, DW_OP_stack_value] $r3
	.loc	7 521 22                        @ ../../M031BSP/Library/StdDriver/inc\clk.h:521:22
	ldr	r0, [r5]
.Ltmp98:
	@DEBUG_VALUE: CLK_SysTickDelay:u32TimeOutCnt <- [DW_OP_constu 3, DW_OP_minus, DW_OP_stack_value] $r3
	.loc	7 521 5                         @ ../../M031BSP/Library/StdDriver/inc\clk.h:521:5
	tst	r0, r1
	bne	.LBB3_11
.Ltmp99:
@ %bb.9:                                @   in Loop: Header=BB3_4 Depth=2
	@DEBUG_VALUE: CLK_SysTickDelay:u32TimeOutCnt <- [DW_OP_constu 3, DW_OP_minus, DW_OP_stack_value] $r3
	@DEBUG_VALUE: CLK_SysTickDelay:us <- 100000
	@DEBUG_VALUE: i <- [DW_OP_plus_uconst 8] [$sp+0]
	@DEBUG_VALUE: led_animasyon1:direction <- 1
	@DEBUG_VALUE: led_animasyon1:position <- 1
	@DEBUG_VALUE: CLK_SysTickDelay:u32TimeOutCnt <- [DW_OP_LLVM_arg 0, DW_OP_consts 4, DW_OP_consts 18446744073709551614, DW_OP_LLVM_arg 0, DW_OP_mul, DW_OP_plus, DW_OP_minus, DW_OP_consts 4, DW_OP_div, DW_OP_consts 18446744073709551612, DW_OP_mul, DW_OP_consts 18446744073709551612, DW_OP_consts 2, DW_OP_LLVM_arg 0, DW_OP_mul, DW_OP_plus, DW_OP_plus, DW_OP_stack_value] undef
	.loc	7 0 5                           @ ../../M031BSP/Library/StdDriver/inc\clk.h:0:5
	rsbs	r4, r3, #0
	adcs	r4, r3
	.loc	7 521 22                        @ ../../M031BSP/Library/StdDriver/inc\clk.h:521:22
	ldr	r0, [r5]
	.loc	7 521 5                         @ ../../M031BSP/Library/StdDriver/inc\clk.h:521:5
	tst	r0, r1
	mov	r0, r7
	bne	.LBB3_3
.Ltmp100:
@ %bb.10:                               @   in Loop: Header=BB3_4 Depth=2
	@DEBUG_VALUE: CLK_SysTickDelay:us <- 100000
	@DEBUG_VALUE: i <- [DW_OP_plus_uconst 8] [$sp+0]
	@DEBUG_VALUE: led_animasyon1:direction <- 1
	@DEBUG_VALUE: led_animasyon1:position <- 1
	.loc	7 0 5                           @ ../../M031BSP/Library/StdDriver/inc\clk.h:0:5
	mov	r0, r4
	b	.LBB3_3
.Ltmp101:
.LBB3_11:                               @   in Loop: Header=BB3_2 Depth=1
	@DEBUG_VALUE: CLK_SysTickDelay:us <- 100000
	@DEBUG_VALUE: i <- [DW_OP_plus_uconst 8] [$sp+0]
	@DEBUG_VALUE: led_animasyon1:direction <- 1
	@DEBUG_VALUE: led_animasyon1:position <- 1
	movs	r3, #0
	.loc	7 530 19 is_stmt 1              @ ../../M031BSP/Library/StdDriver/inc\clk.h:530:19
	str	r3, [r5]
	ldr	r0, __arm_cp.3_1
.Ltmp102:
	@DEBUG_VALUE: led_write:mask <- 12
	.loc	2 35 7                          @ ../main.c:35:7
	str	r3, [r0, #8]
	.loc	2 36 7                          @ ../main.c:36:7
	str	r3, [r0, #4]
	.loc	2 37 7                          @ ../main.c:37:7
	str	r6, [r0]
	.loc	2 38 7                          @ ../main.c:38:7
	str	r6, [r0, #32]
.Ltmp103:
	.loc	7 516 26                        @ ../../M031BSP/Library/StdDriver/inc\clk.h:516:26
	ldr	r0, __arm_cp.3_3
	ldr	r0, [r0]
	.loc	7 516 24 is_stmt 0              @ ../../M031BSP/Library/StdDriver/inc\clk.h:516:24
	ldr	r4, __arm_cp.3_0
	muls	r0, r4, r0
.Ltmp104:
	@DEBUG_VALUE: CLK_SysTickDelay:us <- 100000
	.loc	7 514 30 is_stmt 1              @ ../../M031BSP/Library/StdDriver/inc\clk.h:514:30
	ldr	r4, __arm_cp.3_4
	ldr	r4, [r4]
	.loc	7 516 19                        @ ../../M031BSP/Library/StdDriver/inc\clk.h:516:19
	str	r0, [r5, #4]
	.loc	7 517 19                        @ ../../M031BSP/Library/StdDriver/inc\clk.h:517:19
	str	r3, [r5, #8]
	.loc	7 518 19                        @ ../../M031BSP/Library/StdDriver/inc\clk.h:518:19
	ldr	r0, [sp, #4]                    @ 4-byte Reload
	str	r0, [r5]
	.loc	7 514 46                        @ ../../M031BSP/Library/StdDriver/inc\clk.h:514:46
	lsls	r0, r4, #1
.Ltmp105:
	@DEBUG_VALUE: CLK_SysTickDelay:u32TimeOutCnt <- $r0
	.loc	7 521 5                         @ ../../M031BSP/Library/StdDriver/inc\clk.h:521:5
	subs	r2, r2, r0
	b	.LBB3_13
.Ltmp106:
.LBB3_12:                               @   in Loop: Header=BB3_13 Depth=2
	@DEBUG_VALUE: CLK_SysTickDelay:us <- 100000
	@DEBUG_VALUE: i <- [DW_OP_plus_uconst 8] [$sp+0]
	@DEBUG_VALUE: led_animasyon1:direction <- 1
	@DEBUG_VALUE: led_animasyon1:position <- 1
	adds	r2, r2, #4
	cmp	r0, #1
	beq	.LBB3_1
.Ltmp107:
.LBB3_13:                               @   Parent Loop BB3_2 Depth=1
                                        @ =>  This Inner Loop Header: Depth=2
	@DEBUG_VALUE: CLK_SysTickDelay:us <- 100000
	@DEBUG_VALUE: i <- [DW_OP_plus_uconst 8] [$sp+0]
	@DEBUG_VALUE: led_animasyon1:direction <- 1
	@DEBUG_VALUE: led_animasyon1:position <- 1
	@DEBUG_VALUE: CLK_SysTickDelay:u32TimeOutCnt <- [DW_OP_LLVM_arg 0, DW_OP_consts 4, DW_OP_consts 18446744073709551614, DW_OP_LLVM_arg 0, DW_OP_mul, DW_OP_plus, DW_OP_minus, DW_OP_consts 4, DW_OP_div, DW_OP_consts 18446744073709551612, DW_OP_mul, DW_OP_consts 2, DW_OP_LLVM_arg 0, DW_OP_mul, DW_OP_plus, DW_OP_stack_value] undef
	.loc	7 521 22 is_stmt 0              @ ../../M031BSP/Library/StdDriver/inc\clk.h:521:22
	ldr	r0, [r5]
.Ltmp108:
	@DEBUG_VALUE: CLK_SysTickDelay:u32TimeOutCnt <- [DW_OP_constu 1, DW_OP_minus, DW_OP_stack_value] $r2
	.loc	7 521 5                         @ ../../M031BSP/Library/StdDriver/inc\clk.h:521:5
	tst	r0, r1
	bne	.LBB3_1
.Ltmp109:
@ %bb.14:                               @   in Loop: Header=BB3_13 Depth=2
	@DEBUG_VALUE: CLK_SysTickDelay:u32TimeOutCnt <- [DW_OP_constu 1, DW_OP_minus, DW_OP_stack_value] $r2
	@DEBUG_VALUE: CLK_SysTickDelay:us <- 100000
	@DEBUG_VALUE: i <- [DW_OP_plus_uconst 8] [$sp+0]
	@DEBUG_VALUE: led_animasyon1:direction <- 1
	@DEBUG_VALUE: led_animasyon1:position <- 1
	@DEBUG_VALUE: CLK_SysTickDelay:u32TimeOutCnt <- [DW_OP_constu 2, DW_OP_minus, DW_OP_stack_value] $r2
	.loc	7 0 5                           @ ../../M031BSP/Library/StdDriver/inc\clk.h:0:5
	subs	r0, r2, #2
	rsbs	r4, r0, #0
	adcs	r4, r0
	.loc	7 521 22                        @ ../../M031BSP/Library/StdDriver/inc\clk.h:521:22
	ldr	r0, [r5]
	.loc	7 521 5                         @ ../../M031BSP/Library/StdDriver/inc\clk.h:521:5
	tst	r0, r1
	mov	r0, r7
	bne	.LBB3_16
.Ltmp110:
@ %bb.15:                               @   in Loop: Header=BB3_13 Depth=2
	@DEBUG_VALUE: CLK_SysTickDelay:u32TimeOutCnt <- [DW_OP_constu 2, DW_OP_minus, DW_OP_stack_value] $r2
	@DEBUG_VALUE: CLK_SysTickDelay:us <- 100000
	@DEBUG_VALUE: i <- [DW_OP_plus_uconst 8] [$sp+0]
	@DEBUG_VALUE: led_animasyon1:direction <- 1
	@DEBUG_VALUE: led_animasyon1:position <- 1
	.loc	7 0 5                           @ ../../M031BSP/Library/StdDriver/inc\clk.h:0:5
	mov	r0, r4
.Ltmp111:
.LBB3_16:                               @   in Loop: Header=BB3_13 Depth=2
	@DEBUG_VALUE: CLK_SysTickDelay:u32TimeOutCnt <- [DW_OP_constu 2, DW_OP_minus, DW_OP_stack_value] $r2
	@DEBUG_VALUE: CLK_SysTickDelay:us <- 100000
	@DEBUG_VALUE: i <- [DW_OP_plus_uconst 8] [$sp+0]
	@DEBUG_VALUE: led_animasyon1:direction <- 1
	@DEBUG_VALUE: led_animasyon1:position <- 1
	.loc	7 521 5                         @ ../../M031BSP/Library/StdDriver/inc\clk.h:521:5
	cmp	r0, #0
	bne	.LBB3_1
.Ltmp112:
@ %bb.17:                               @   in Loop: Header=BB3_13 Depth=2
	@DEBUG_VALUE: CLK_SysTickDelay:u32TimeOutCnt <- [DW_OP_constu 2, DW_OP_minus, DW_OP_stack_value] $r2
	@DEBUG_VALUE: CLK_SysTickDelay:us <- 100000
	@DEBUG_VALUE: i <- [DW_OP_plus_uconst 8] [$sp+0]
	@DEBUG_VALUE: led_animasyon1:direction <- 1
	@DEBUG_VALUE: led_animasyon1:position <- 1
	@DEBUG_VALUE: CLK_SysTickDelay:u32TimeOutCnt <- [DW_OP_constu 2, DW_OP_minus, DW_OP_stack_value] $r2
	.loc	7 521 22                        @ ../../M031BSP/Library/StdDriver/inc\clk.h:521:22
	ldr	r0, [r5]
.Ltmp113:
	@DEBUG_VALUE: CLK_SysTickDelay:u32TimeOutCnt <- [DW_OP_constu 3, DW_OP_minus, DW_OP_stack_value] $r2
	.loc	7 521 5                         @ ../../M031BSP/Library/StdDriver/inc\clk.h:521:5
	tst	r0, r1
	bne	.LBB3_1
.Ltmp114:
@ %bb.18:                               @   in Loop: Header=BB3_13 Depth=2
	@DEBUG_VALUE: CLK_SysTickDelay:u32TimeOutCnt <- [DW_OP_constu 3, DW_OP_minus, DW_OP_stack_value] $r2
	@DEBUG_VALUE: CLK_SysTickDelay:us <- 100000
	@DEBUG_VALUE: i <- [DW_OP_plus_uconst 8] [$sp+0]
	@DEBUG_VALUE: led_animasyon1:direction <- 1
	@DEBUG_VALUE: led_animasyon1:position <- 1
	@DEBUG_VALUE: CLK_SysTickDelay:u32TimeOutCnt <- [DW_OP_LLVM_arg 0, DW_OP_consts 4, DW_OP_consts 18446744073709551614, DW_OP_LLVM_arg 0, DW_OP_mul, DW_OP_plus, DW_OP_minus, DW_OP_consts 4, DW_OP_div, DW_OP_consts 18446744073709551612, DW_OP_mul, DW_OP_consts 18446744073709551612, DW_OP_consts 2, DW_OP_LLVM_arg 0, DW_OP_mul, DW_OP_plus, DW_OP_plus, DW_OP_stack_value] undef
	.loc	7 0 5                           @ ../../M031BSP/Library/StdDriver/inc\clk.h:0:5
	rsbs	r4, r2, #0
	adcs	r4, r2
	.loc	7 521 22                        @ ../../M031BSP/Library/StdDriver/inc\clk.h:521:22
	ldr	r0, [r5]
	.loc	7 521 5                         @ ../../M031BSP/Library/StdDriver/inc\clk.h:521:5
	tst	r0, r1
	mov	r0, r7
	bne	.LBB3_12
.Ltmp115:
@ %bb.19:                               @   in Loop: Header=BB3_13 Depth=2
	@DEBUG_VALUE: CLK_SysTickDelay:us <- 100000
	@DEBUG_VALUE: i <- [DW_OP_plus_uconst 8] [$sp+0]
	@DEBUG_VALUE: led_animasyon1:direction <- 1
	@DEBUG_VALUE: led_animasyon1:position <- 1
	.loc	7 0 5                           @ ../../M031BSP/Library/StdDriver/inc\clk.h:0:5
	mov	r0, r4
	b	.LBB3_12
.Ltmp116:
.LBB3_20:
	@DEBUG_VALUE: led_animasyon1:direction <- 1
	@DEBUG_VALUE: led_animasyon1:position <- 1
	.loc	2 153 1 epilogue_begin is_stmt 1 @ ../main.c:153:1
	add	sp, #12
	pop	{r4, r5, r6, r7, pc}
.Ltmp117:
	.p2align	2
@ %bb.21:
	.loc	2 0 1 is_stmt 0                 @ ../main.c:0:1
__arm_cp.3_0:
	.long	100000                          @ 0x186a0
.Lcpi_end16:
	.size	__arm_cp.3_0, .Lcpi_end16-__arm_cp.3_0
__arm_cp.3_1:
	.long	1073760600                      @ 0x40004958
.Lcpi_end17:
	.size	__arm_cp.3_1, .Lcpi_end17-__arm_cp.3_1
__arm_cp.3_2:
	.long	3758153744                      @ 0xe000e010
.Lcpi_end18:
	.size	__arm_cp.3_2, .Lcpi_end18-__arm_cp.3_2
__arm_cp.3_3:
	.long	CyclesPerUs
.Lcpi_end19:
	.size	__arm_cp.3_3, .Lcpi_end19-__arm_cp.3_3
__arm_cp.3_4:
	.long	SystemCoreClock
.Lcpi_end20:
	.size	__arm_cp.3_4, .Lcpi_end20-__arm_cp.3_4
.Lfunc_end3:
	.size	led_animasyon1, .Lfunc_end3-led_animasyon1
	.cfi_endproc
	.cantunwind
	.fnend
                                        @ -- End function
	.section	.text.led_animasyon2,"ax",%progbits
	.hidden	led_animasyon2                  @ -- Begin function led_animasyon2
	.globl	led_animasyon2
	.p2align	2
	.type	led_animasyon2,%function
	.code	16                              @ @led_animasyon2
	.thumb_func
led_animasyon2:
.Lfunc_begin4:
	.loc	2 155 0 is_stmt 1               @ ../main.c:155:0
	.fnstart
	.cfi_startproc
@ %bb.0:
	.save	{r4, r5, r6, r7, lr}
	push	{r4, r5, r6, r7, lr}
	.cfi_def_cfa_offset 20
	.cfi_offset lr, -4
	.cfi_offset r7, -8
	.cfi_offset r6, -12
	.cfi_offset r5, -16
	.cfi_offset r4, -20
	.pad	#12
	sub	sp, #12
	.cfi_def_cfa_offset 32
.Ltmp118:
	@DEBUG_VALUE: led_animasyon2:position <- 1
	ldr	r4, __arm_cp.4_5
	movs	r1, #1
.Ltmp119:
	@DEBUG_VALUE: led_write:mask <- 3
	.loc	2 35 7 prologue_end             @ ../main.c:35:7
	str	r1, [r4, #8]
	.loc	2 36 7                          @ ../main.c:36:7
	str	r1, [r4, #4]
	movs	r5, #0
	.loc	2 37 7                          @ ../main.c:37:7
	str	r5, [r4]
	.loc	2 38 7                          @ ../main.c:38:7
	str	r5, [r4, #32]
.Ltmp120:
	.loc	7 516 26                        @ ../../M031BSP/Library/StdDriver/inc\clk.h:516:26
	ldr	r0, .LCPI4_6
	ldr	r0, [r0]
	ldr	r2, .LCPI4_7
	.loc	7 516 24 is_stmt 0              @ ../../M031BSP/Library/StdDriver/inc\clk.h:516:24
	muls	r0, r2, r0
.Ltmp121:
	@DEBUG_VALUE: CLK_SysTickDelay:us <- 100000
	.loc	7 514 30 is_stmt 1              @ ../../M031BSP/Library/StdDriver/inc\clk.h:514:30
	ldr	r2, .LCPI4_8
	ldr	r3, [r2]
	ldr	r2, __arm_cp.4_9
	.loc	7 516 19                        @ ../../M031BSP/Library/StdDriver/inc\clk.h:516:19
	str	r0, [r2, #4]
	str	r5, [sp, #8]                    @ 4-byte Spill
	.loc	7 517 19                        @ ../../M031BSP/Library/StdDriver/inc\clk.h:517:19
	str	r5, [r2, #8]
	movs	r0, #5
	str	r0, [sp, #4]                    @ 4-byte Spill
	.loc	7 518 19                        @ ../../M031BSP/Library/StdDriver/inc\clk.h:518:19
	str	r0, [r2]
	.loc	7 514 46                        @ ../../M031BSP/Library/StdDriver/inc\clk.h:514:46
	lsls	r0, r3, #1
.Ltmp122:
	@DEBUG_VALUE: CLK_SysTickDelay:u32TimeOutCnt <- $r0
	.loc	7 0 46 is_stmt 0                @ ../../M031BSP/Library/StdDriver/inc\clk.h:0:46
	movs	r3, #4
	str	r3, [sp]                        @ 4-byte Spill
	.loc	7 521 5 is_stmt 1               @ ../../M031BSP/Library/StdDriver/inc\clk.h:521:5
	subs	r6, r3, r0
	lsls	r3, r1, #16
	b	.LBB4_7
.Ltmp123:
	.p2align	2
@ %bb.1:
	.loc	7 0 5 is_stmt 0                 @ ../../M031BSP/Library/StdDriver/inc\clk.h:0:5
__arm_cp.4_5:
	.long	1073760600                      @ 0x40004958
.Lcpi_end21:
	.size	__arm_cp.4_5, .Lcpi_end21-__arm_cp.4_5
	.p2align	2
@ %bb.2:
.LCPI4_6:
	.long	CyclesPerUs
	.p2align	2
@ %bb.3:
.LCPI4_7:
	.long	100000                          @ 0x186a0
	.p2align	2
@ %bb.4:
.LCPI4_8:
	.long	SystemCoreClock
	.p2align	2
@ %bb.5:
__arm_cp.4_9:
	.long	3758153744                      @ 0xe000e010
.Lcpi_end22:
	.size	__arm_cp.4_9, .Lcpi_end22-__arm_cp.4_9
	.p2align	1
.LBB4_6:                                @   in Loop: Header=BB4_7 Depth=1
.Ltmp124:
	@DEBUG_VALUE: CLK_SysTickDelay:us <- 100000
	@DEBUG_VALUE: led_animasyon2:position <- 1
	.loc	7 521 5                         @ ../../M031BSP/Library/StdDriver/inc\clk.h:521:5
	adds	r6, r6, #4
	cmp	r5, #1
	beq	.LBB4_14
.Ltmp125:
.LBB4_7:                                @ =>This Inner Loop Header: Depth=1
	@DEBUG_VALUE: CLK_SysTickDelay:us <- 100000
	@DEBUG_VALUE: led_animasyon2:position <- 1
	@DEBUG_VALUE: CLK_SysTickDelay:u32TimeOutCnt <- [DW_OP_LLVM_arg 0, DW_OP_consts 4, DW_OP_consts 18446744073709551614, DW_OP_LLVM_arg 0, DW_OP_mul, DW_OP_plus, DW_OP_minus, DW_OP_consts 4, DW_OP_div, DW_OP_consts 18446744073709551612, DW_OP_mul, DW_OP_consts 2, DW_OP_LLVM_arg 0, DW_OP_mul, DW_OP_plus, DW_OP_stack_value] undef
	.loc	7 521 22                        @ ../../M031BSP/Library/StdDriver/inc\clk.h:521:22
	ldr	r0, [r2]
.Ltmp126:
	@DEBUG_VALUE: CLK_SysTickDelay:u32TimeOutCnt <- [DW_OP_constu 1, DW_OP_minus, DW_OP_stack_value] $r6
	.loc	7 521 5                         @ ../../M031BSP/Library/StdDriver/inc\clk.h:521:5
	tst	r0, r3
	bne	.LBB4_14
.Ltmp127:
@ %bb.8:                                @   in Loop: Header=BB4_7 Depth=1
	@DEBUG_VALUE: CLK_SysTickDelay:u32TimeOutCnt <- [DW_OP_constu 1, DW_OP_minus, DW_OP_stack_value] $r6
	@DEBUG_VALUE: CLK_SysTickDelay:us <- 100000
	@DEBUG_VALUE: led_animasyon2:position <- 1
	@DEBUG_VALUE: CLK_SysTickDelay:u32TimeOutCnt <- [DW_OP_constu 2, DW_OP_minus, DW_OP_stack_value] $r6
	.loc	7 0 5                           @ ../../M031BSP/Library/StdDriver/inc\clk.h:0:5
	subs	r0, r6, #2
	rsbs	r7, r0, #0
	adcs	r7, r0
	.loc	7 521 22                        @ ../../M031BSP/Library/StdDriver/inc\clk.h:521:22
	ldr	r0, [r2]
	.loc	7 521 5                         @ ../../M031BSP/Library/StdDriver/inc\clk.h:521:5
	tst	r0, r3
	mov	r0, r1
	bne	.LBB4_10
.Ltmp128:
@ %bb.9:                                @   in Loop: Header=BB4_7 Depth=1
	@DEBUG_VALUE: CLK_SysTickDelay:u32TimeOutCnt <- [DW_OP_constu 2, DW_OP_minus, DW_OP_stack_value] $r6
	@DEBUG_VALUE: CLK_SysTickDelay:us <- 100000
	@DEBUG_VALUE: led_animasyon2:position <- 1
	.loc	7 0 5                           @ ../../M031BSP/Library/StdDriver/inc\clk.h:0:5
	mov	r0, r7
.Ltmp129:
.LBB4_10:                               @   in Loop: Header=BB4_7 Depth=1
	@DEBUG_VALUE: CLK_SysTickDelay:u32TimeOutCnt <- [DW_OP_constu 2, DW_OP_minus, DW_OP_stack_value] $r6
	@DEBUG_VALUE: CLK_SysTickDelay:us <- 100000
	@DEBUG_VALUE: led_animasyon2:position <- 1
	.loc	7 521 5                         @ ../../M031BSP/Library/StdDriver/inc\clk.h:521:5
	cmp	r0, #0
	bne	.LBB4_14
.Ltmp130:
@ %bb.11:                               @   in Loop: Header=BB4_7 Depth=1
	@DEBUG_VALUE: CLK_SysTickDelay:u32TimeOutCnt <- [DW_OP_constu 2, DW_OP_minus, DW_OP_stack_value] $r6
	@DEBUG_VALUE: CLK_SysTickDelay:us <- 100000
	@DEBUG_VALUE: led_animasyon2:position <- 1
	@DEBUG_VALUE: CLK_SysTickDelay:u32TimeOutCnt <- [DW_OP_constu 2, DW_OP_minus, DW_OP_stack_value] $r6
	.loc	7 521 22                        @ ../../M031BSP/Library/StdDriver/inc\clk.h:521:22
	ldr	r0, [r2]
.Ltmp131:
	@DEBUG_VALUE: CLK_SysTickDelay:u32TimeOutCnt <- [DW_OP_constu 3, DW_OP_minus, DW_OP_stack_value] $r6
	.loc	7 521 5                         @ ../../M031BSP/Library/StdDriver/inc\clk.h:521:5
	tst	r0, r3
	bne	.LBB4_14
.Ltmp132:
@ %bb.12:                               @   in Loop: Header=BB4_7 Depth=1
	@DEBUG_VALUE: CLK_SysTickDelay:u32TimeOutCnt <- [DW_OP_constu 3, DW_OP_minus, DW_OP_stack_value] $r6
	@DEBUG_VALUE: CLK_SysTickDelay:us <- 100000
	@DEBUG_VALUE: led_animasyon2:position <- 1
	@DEBUG_VALUE: CLK_SysTickDelay:u32TimeOutCnt <- [DW_OP_LLVM_arg 0, DW_OP_consts 4, DW_OP_consts 18446744073709551614, DW_OP_LLVM_arg 0, DW_OP_mul, DW_OP_plus, DW_OP_minus, DW_OP_consts 4, DW_OP_div, DW_OP_consts 18446744073709551612, DW_OP_mul, DW_OP_consts 18446744073709551612, DW_OP_consts 2, DW_OP_LLVM_arg 0, DW_OP_mul, DW_OP_plus, DW_OP_plus, DW_OP_stack_value] undef
	.loc	7 0 5                           @ ../../M031BSP/Library/StdDriver/inc\clk.h:0:5
	rsbs	r7, r6, #0
	adcs	r7, r6
	.loc	7 521 22                        @ ../../M031BSP/Library/StdDriver/inc\clk.h:521:22
	ldr	r0, [r2]
	.loc	7 521 5                         @ ../../M031BSP/Library/StdDriver/inc\clk.h:521:5
	tst	r0, r3
	mov	r5, r1
	bne	.LBB4_6
.Ltmp133:
@ %bb.13:                               @   in Loop: Header=BB4_7 Depth=1
	@DEBUG_VALUE: CLK_SysTickDelay:us <- 100000
	@DEBUG_VALUE: led_animasyon2:position <- 1
	.loc	7 0 5                           @ ../../M031BSP/Library/StdDriver/inc\clk.h:0:5
	mov	r5, r7
	b	.LBB4_6
.Ltmp134:
.LBB4_14:
	@DEBUG_VALUE: CLK_SysTickDelay:us <- 100000
	@DEBUG_VALUE: led_animasyon2:position <- 1
	ldr	r6, [sp, #8]                    @ 4-byte Reload
	.loc	7 530 19 is_stmt 1              @ ../../M031BSP/Library/StdDriver/inc\clk.h:530:19
	str	r6, [r2]
.Ltmp135:
	@DEBUG_VALUE: led_write:mask <- 0
	.loc	2 35 7                          @ ../main.c:35:7
	str	r6, [r4, #8]
	.loc	2 36 7                          @ ../main.c:36:7
	str	r6, [r4, #4]
	.loc	2 37 7                          @ ../main.c:37:7
	str	r6, [r4]
	.loc	2 38 7                          @ ../main.c:38:7
	str	r6, [r4, #32]
.Ltmp136:
	.loc	7 516 26                        @ ../../M031BSP/Library/StdDriver/inc\clk.h:516:26
	ldr	r0, .LCPI4_10
	ldr	r0, [r0]
	.loc	7 516 24 is_stmt 0              @ ../../M031BSP/Library/StdDriver/inc\clk.h:516:24
	ldr	r5, .LCPI4_11
	muls	r0, r5, r0
.Ltmp137:
	@DEBUG_VALUE: CLK_SysTickDelay:us <- 100000
	.loc	7 514 30 is_stmt 1              @ ../../M031BSP/Library/StdDriver/inc\clk.h:514:30
	ldr	r5, .LCPI4_12
	ldr	r5, [r5]
	.loc	7 516 19                        @ ../../M031BSP/Library/StdDriver/inc\clk.h:516:19
	str	r0, [r2, #4]
	.loc	7 517 19                        @ ../../M031BSP/Library/StdDriver/inc\clk.h:517:19
	str	r6, [r2, #8]
	.loc	7 518 19                        @ ../../M031BSP/Library/StdDriver/inc\clk.h:518:19
	ldr	r0, [sp, #4]                    @ 4-byte Reload
	str	r0, [r2]
	.loc	7 514 46                        @ ../../M031BSP/Library/StdDriver/inc\clk.h:514:46
	lsls	r0, r5, #1
.Ltmp138:
	@DEBUG_VALUE: CLK_SysTickDelay:u32TimeOutCnt <- $r0
	.loc	7 521 5                         @ ../../M031BSP/Library/StdDriver/inc\clk.h:521:5
	ldr	r5, [sp]                        @ 4-byte Reload
	subs	r6, r5, r0
	b	.LBB4_16
.Ltmp139:
.LBB4_15:                               @   in Loop: Header=BB4_16 Depth=1
	@DEBUG_VALUE: CLK_SysTickDelay:us <- 100000
	@DEBUG_VALUE: led_animasyon2:position <- 1
	adds	r6, r6, #4
	cmp	r5, #1
	beq	.LBB4_23
.Ltmp140:
.LBB4_16:                               @ =>This Inner Loop Header: Depth=1
	@DEBUG_VALUE: CLK_SysTickDelay:us <- 100000
	@DEBUG_VALUE: led_animasyon2:position <- 1
	@DEBUG_VALUE: CLK_SysTickDelay:u32TimeOutCnt <- [DW_OP_LLVM_arg 0, DW_OP_consts 4, DW_OP_consts 18446744073709551614, DW_OP_LLVM_arg 0, DW_OP_mul, DW_OP_plus, DW_OP_minus, DW_OP_consts 4, DW_OP_div, DW_OP_consts 18446744073709551612, DW_OP_mul, DW_OP_consts 2, DW_OP_LLVM_arg 0, DW_OP_mul, DW_OP_plus, DW_OP_stack_value] undef
	.loc	7 521 22 is_stmt 0              @ ../../M031BSP/Library/StdDriver/inc\clk.h:521:22
	ldr	r0, [r2]
.Ltmp141:
	@DEBUG_VALUE: CLK_SysTickDelay:u32TimeOutCnt <- [DW_OP_constu 1, DW_OP_minus, DW_OP_stack_value] $r6
	.loc	7 521 5                         @ ../../M031BSP/Library/StdDriver/inc\clk.h:521:5
	tst	r0, r3
	bne	.LBB4_23
.Ltmp142:
@ %bb.17:                               @   in Loop: Header=BB4_16 Depth=1
	@DEBUG_VALUE: CLK_SysTickDelay:u32TimeOutCnt <- [DW_OP_constu 1, DW_OP_minus, DW_OP_stack_value] $r6
	@DEBUG_VALUE: CLK_SysTickDelay:us <- 100000
	@DEBUG_VALUE: led_animasyon2:position <- 1
	@DEBUG_VALUE: CLK_SysTickDelay:u32TimeOutCnt <- [DW_OP_constu 2, DW_OP_minus, DW_OP_stack_value] $r6
	.loc	7 0 5                           @ ../../M031BSP/Library/StdDriver/inc\clk.h:0:5
	subs	r0, r6, #2
	rsbs	r7, r0, #0
	adcs	r7, r0
	.loc	7 521 22                        @ ../../M031BSP/Library/StdDriver/inc\clk.h:521:22
	ldr	r0, [r2]
	.loc	7 521 5                         @ ../../M031BSP/Library/StdDriver/inc\clk.h:521:5
	tst	r0, r3
	mov	r0, r1
	bne	.LBB4_19
.Ltmp143:
@ %bb.18:                               @   in Loop: Header=BB4_16 Depth=1
	@DEBUG_VALUE: CLK_SysTickDelay:u32TimeOutCnt <- [DW_OP_constu 2, DW_OP_minus, DW_OP_stack_value] $r6
	@DEBUG_VALUE: CLK_SysTickDelay:us <- 100000
	@DEBUG_VALUE: led_animasyon2:position <- 1
	.loc	7 0 5                           @ ../../M031BSP/Library/StdDriver/inc\clk.h:0:5
	mov	r0, r7
.Ltmp144:
.LBB4_19:                               @   in Loop: Header=BB4_16 Depth=1
	@DEBUG_VALUE: CLK_SysTickDelay:u32TimeOutCnt <- [DW_OP_constu 2, DW_OP_minus, DW_OP_stack_value] $r6
	@DEBUG_VALUE: CLK_SysTickDelay:us <- 100000
	@DEBUG_VALUE: led_animasyon2:position <- 1
	.loc	7 521 5                         @ ../../M031BSP/Library/StdDriver/inc\clk.h:521:5
	cmp	r0, #0
	bne	.LBB4_23
.Ltmp145:
@ %bb.20:                               @   in Loop: Header=BB4_16 Depth=1
	@DEBUG_VALUE: CLK_SysTickDelay:u32TimeOutCnt <- [DW_OP_constu 2, DW_OP_minus, DW_OP_stack_value] $r6
	@DEBUG_VALUE: CLK_SysTickDelay:us <- 100000
	@DEBUG_VALUE: led_animasyon2:position <- 1
	@DEBUG_VALUE: CLK_SysTickDelay:u32TimeOutCnt <- [DW_OP_constu 2, DW_OP_minus, DW_OP_stack_value] $r6
	.loc	7 521 22                        @ ../../M031BSP/Library/StdDriver/inc\clk.h:521:22
	ldr	r0, [r2]
.Ltmp146:
	@DEBUG_VALUE: CLK_SysTickDelay:u32TimeOutCnt <- [DW_OP_constu 3, DW_OP_minus, DW_OP_stack_value] $r6
	.loc	7 521 5                         @ ../../M031BSP/Library/StdDriver/inc\clk.h:521:5
	tst	r0, r3
	bne	.LBB4_23
.Ltmp147:
@ %bb.21:                               @   in Loop: Header=BB4_16 Depth=1
	@DEBUG_VALUE: CLK_SysTickDelay:u32TimeOutCnt <- [DW_OP_constu 3, DW_OP_minus, DW_OP_stack_value] $r6
	@DEBUG_VALUE: CLK_SysTickDelay:us <- 100000
	@DEBUG_VALUE: led_animasyon2:position <- 1
	@DEBUG_VALUE: CLK_SysTickDelay:u32TimeOutCnt <- [DW_OP_LLVM_arg 0, DW_OP_consts 4, DW_OP_consts 18446744073709551614, DW_OP_LLVM_arg 0, DW_OP_mul, DW_OP_plus, DW_OP_minus, DW_OP_consts 4, DW_OP_div, DW_OP_consts 18446744073709551612, DW_OP_mul, DW_OP_consts 18446744073709551612, DW_OP_consts 2, DW_OP_LLVM_arg 0, DW_OP_mul, DW_OP_plus, DW_OP_plus, DW_OP_stack_value] undef
	.loc	7 0 5                           @ ../../M031BSP/Library/StdDriver/inc\clk.h:0:5
	rsbs	r7, r6, #0
	adcs	r7, r6
	.loc	7 521 22                        @ ../../M031BSP/Library/StdDriver/inc\clk.h:521:22
	ldr	r0, [r2]
	.loc	7 521 5                         @ ../../M031BSP/Library/StdDriver/inc\clk.h:521:5
	tst	r0, r3
	mov	r5, r1
	bne	.LBB4_15
.Ltmp148:
@ %bb.22:                               @   in Loop: Header=BB4_16 Depth=1
	@DEBUG_VALUE: CLK_SysTickDelay:us <- 100000
	@DEBUG_VALUE: led_animasyon2:position <- 1
	.loc	7 0 5                           @ ../../M031BSP/Library/StdDriver/inc\clk.h:0:5
	mov	r5, r7
	b	.LBB4_15
.Ltmp149:
.LBB4_23:
	@DEBUG_VALUE: CLK_SysTickDelay:us <- 100000
	@DEBUG_VALUE: led_animasyon2:position <- 1
	ldr	r7, [sp, #8]                    @ 4-byte Reload
	.loc	7 530 19 is_stmt 1              @ ../../M031BSP/Library/StdDriver/inc\clk.h:530:19
	str	r7, [r2]
	movs	r6, #1
.Ltmp150:
	@DEBUG_VALUE: led_write:mask <- 3
	.loc	2 35 7                          @ ../main.c:35:7
	str	r6, [r4, #8]
	.loc	2 36 7                          @ ../main.c:36:7
	str	r6, [r4, #4]
	.loc	2 37 7                          @ ../main.c:37:7
	str	r7, [r4]
	.loc	2 38 7                          @ ../main.c:38:7
	str	r7, [r4, #32]
.Ltmp151:
	.loc	7 516 26                        @ ../../M031BSP/Library/StdDriver/inc\clk.h:516:26
	ldr	r0, __arm_cp.4_1
	ldr	r0, [r0]
	.loc	7 516 24 is_stmt 0              @ ../../M031BSP/Library/StdDriver/inc\clk.h:516:24
	ldr	r5, __arm_cp.4_2
	muls	r0, r5, r0
.Ltmp152:
	@DEBUG_VALUE: CLK_SysTickDelay:us <- 100000
	.loc	7 514 30 is_stmt 1              @ ../../M031BSP/Library/StdDriver/inc\clk.h:514:30
	ldr	r5, __arm_cp.4_3
	ldr	r5, [r5]
	.loc	7 516 19                        @ ../../M031BSP/Library/StdDriver/inc\clk.h:516:19
	str	r0, [r2, #4]
	.loc	7 517 19                        @ ../../M031BSP/Library/StdDriver/inc\clk.h:517:19
	str	r7, [r2, #8]
	.loc	7 518 19                        @ ../../M031BSP/Library/StdDriver/inc\clk.h:518:19
	ldr	r0, [sp, #4]                    @ 4-byte Reload
	str	r0, [r2]
	.loc	7 514 46                        @ ../../M031BSP/Library/StdDriver/inc\clk.h:514:46
	lsls	r0, r5, #1
.Ltmp153:
	@DEBUG_VALUE: CLK_SysTickDelay:u32TimeOutCnt <- $r0
	.loc	7 521 5                         @ ../../M031BSP/Library/StdDriver/inc\clk.h:521:5
	ldr	r5, [sp]                        @ 4-byte Reload
	subs	r7, r5, r0
	b	.LBB4_25
.Ltmp154:
.LBB4_24:                               @   in Loop: Header=BB4_25 Depth=1
	@DEBUG_VALUE: CLK_SysTickDelay:us <- 100000
	@DEBUG_VALUE: led_animasyon2:position <- 1
	adds	r7, r7, #4
	cmp	r0, #1
	beq	.LBB4_32
.Ltmp155:
.LBB4_25:                               @ =>This Inner Loop Header: Depth=1
	@DEBUG_VALUE: CLK_SysTickDelay:us <- 100000
	@DEBUG_VALUE: led_animasyon2:position <- 1
	@DEBUG_VALUE: CLK_SysTickDelay:u32TimeOutCnt <- [DW_OP_LLVM_arg 0, DW_OP_consts 4, DW_OP_consts 18446744073709551614, DW_OP_LLVM_arg 0, DW_OP_mul, DW_OP_plus, DW_OP_minus, DW_OP_consts 4, DW_OP_div, DW_OP_consts 18446744073709551612, DW_OP_mul, DW_OP_consts 2, DW_OP_LLVM_arg 0, DW_OP_mul, DW_OP_plus, DW_OP_stack_value] undef
	.loc	7 521 22 is_stmt 0              @ ../../M031BSP/Library/StdDriver/inc\clk.h:521:22
	ldr	r0, [r2]
.Ltmp156:
	@DEBUG_VALUE: CLK_SysTickDelay:u32TimeOutCnt <- [DW_OP_constu 1, DW_OP_minus, DW_OP_stack_value] $r7
	.loc	7 521 5                         @ ../../M031BSP/Library/StdDriver/inc\clk.h:521:5
	tst	r0, r3
	bne	.LBB4_32
.Ltmp157:
@ %bb.26:                               @   in Loop: Header=BB4_25 Depth=1
	@DEBUG_VALUE: CLK_SysTickDelay:u32TimeOutCnt <- [DW_OP_constu 1, DW_OP_minus, DW_OP_stack_value] $r7
	@DEBUG_VALUE: CLK_SysTickDelay:us <- 100000
	@DEBUG_VALUE: led_animasyon2:position <- 1
	@DEBUG_VALUE: CLK_SysTickDelay:u32TimeOutCnt <- [DW_OP_constu 2, DW_OP_minus, DW_OP_stack_value] $r7
	.loc	7 0 5                           @ ../../M031BSP/Library/StdDriver/inc\clk.h:0:5
	subs	r0, r7, #2
	rsbs	r5, r0, #0
	adcs	r5, r0
	.loc	7 521 22                        @ ../../M031BSP/Library/StdDriver/inc\clk.h:521:22
	ldr	r0, [r2]
	.loc	7 521 5                         @ ../../M031BSP/Library/StdDriver/inc\clk.h:521:5
	tst	r0, r3
	mov	r0, r1
	bne	.LBB4_28
.Ltmp158:
@ %bb.27:                               @   in Loop: Header=BB4_25 Depth=1
	@DEBUG_VALUE: CLK_SysTickDelay:u32TimeOutCnt <- [DW_OP_constu 2, DW_OP_minus, DW_OP_stack_value] $r7
	@DEBUG_VALUE: CLK_SysTickDelay:us <- 100000
	@DEBUG_VALUE: led_animasyon2:position <- 1
	.loc	7 0 5                           @ ../../M031BSP/Library/StdDriver/inc\clk.h:0:5
	mov	r0, r5
.Ltmp159:
.LBB4_28:                               @   in Loop: Header=BB4_25 Depth=1
	@DEBUG_VALUE: CLK_SysTickDelay:u32TimeOutCnt <- [DW_OP_constu 2, DW_OP_minus, DW_OP_stack_value] $r7
	@DEBUG_VALUE: CLK_SysTickDelay:us <- 100000
	@DEBUG_VALUE: led_animasyon2:position <- 1
	.loc	7 521 5                         @ ../../M031BSP/Library/StdDriver/inc\clk.h:521:5
	cmp	r0, #0
	bne	.LBB4_32
.Ltmp160:
@ %bb.29:                               @   in Loop: Header=BB4_25 Depth=1
	@DEBUG_VALUE: CLK_SysTickDelay:u32TimeOutCnt <- [DW_OP_constu 2, DW_OP_minus, DW_OP_stack_value] $r7
	@DEBUG_VALUE: CLK_SysTickDelay:us <- 100000
	@DEBUG_VALUE: led_animasyon2:position <- 1
	@DEBUG_VALUE: CLK_SysTickDelay:u32TimeOutCnt <- [DW_OP_constu 2, DW_OP_minus, DW_OP_stack_value] $r7
	.loc	7 521 22                        @ ../../M031BSP/Library/StdDriver/inc\clk.h:521:22
	ldr	r0, [r2]
.Ltmp161:
	@DEBUG_VALUE: CLK_SysTickDelay:u32TimeOutCnt <- [DW_OP_constu 3, DW_OP_minus, DW_OP_stack_value] $r7
	.loc	7 521 5                         @ ../../M031BSP/Library/StdDriver/inc\clk.h:521:5
	tst	r0, r3
	bne	.LBB4_32
.Ltmp162:
@ %bb.30:                               @   in Loop: Header=BB4_25 Depth=1
	@DEBUG_VALUE: CLK_SysTickDelay:u32TimeOutCnt <- [DW_OP_constu 3, DW_OP_minus, DW_OP_stack_value] $r7
	@DEBUG_VALUE: CLK_SysTickDelay:us <- 100000
	@DEBUG_VALUE: led_animasyon2:position <- 1
	@DEBUG_VALUE: CLK_SysTickDelay:u32TimeOutCnt <- [DW_OP_LLVM_arg 0, DW_OP_consts 4, DW_OP_consts 18446744073709551614, DW_OP_LLVM_arg 0, DW_OP_mul, DW_OP_plus, DW_OP_minus, DW_OP_consts 4, DW_OP_div, DW_OP_consts 18446744073709551612, DW_OP_mul, DW_OP_consts 18446744073709551612, DW_OP_consts 2, DW_OP_LLVM_arg 0, DW_OP_mul, DW_OP_plus, DW_OP_plus, DW_OP_stack_value] undef
	.loc	7 0 5                           @ ../../M031BSP/Library/StdDriver/inc\clk.h:0:5
	rsbs	r5, r7, #0
	adcs	r5, r7
	.loc	7 521 22                        @ ../../M031BSP/Library/StdDriver/inc\clk.h:521:22
	ldr	r0, [r2]
	.loc	7 521 5                         @ ../../M031BSP/Library/StdDriver/inc\clk.h:521:5
	tst	r0, r3
	mov	r0, r1
	bne	.LBB4_24
.Ltmp163:
@ %bb.31:                               @   in Loop: Header=BB4_25 Depth=1
	@DEBUG_VALUE: CLK_SysTickDelay:us <- 100000
	@DEBUG_VALUE: led_animasyon2:position <- 1
	.loc	7 0 5                           @ ../../M031BSP/Library/StdDriver/inc\clk.h:0:5
	mov	r0, r5
	b	.LBB4_24
.Ltmp164:
.LBB4_32:
	@DEBUG_VALUE: CLK_SysTickDelay:us <- 100000
	@DEBUG_VALUE: led_animasyon2:position <- 1
	ldr	r7, [sp, #8]                    @ 4-byte Reload
	.loc	7 530 19 is_stmt 1              @ ../../M031BSP/Library/StdDriver/inc\clk.h:530:19
	str	r7, [r2]
.Ltmp165:
	@DEBUG_VALUE: led_write:mask <- 3
	.loc	2 35 7                          @ ../main.c:35:7
	str	r6, [r4, #8]
	.loc	2 36 7                          @ ../main.c:36:7
	str	r6, [r4, #4]
	.loc	2 37 7                          @ ../main.c:37:7
	str	r7, [r4]
	.loc	2 38 7                          @ ../main.c:38:7
	str	r7, [r4, #32]
.Ltmp166:
	.loc	7 516 26                        @ ../../M031BSP/Library/StdDriver/inc\clk.h:516:26
	ldr	r0, __arm_cp.4_1
	ldr	r0, [r0]
	.loc	7 516 24 is_stmt 0              @ ../../M031BSP/Library/StdDriver/inc\clk.h:516:24
	ldr	r5, __arm_cp.4_2
	muls	r0, r5, r0
.Ltmp167:
	@DEBUG_VALUE: CLK_SysTickDelay:us <- 100000
	.loc	7 514 30 is_stmt 1              @ ../../M031BSP/Library/StdDriver/inc\clk.h:514:30
	ldr	r5, __arm_cp.4_3
	ldr	r5, [r5]
	.loc	7 516 19                        @ ../../M031BSP/Library/StdDriver/inc\clk.h:516:19
	str	r0, [r2, #4]
	.loc	7 517 19                        @ ../../M031BSP/Library/StdDriver/inc\clk.h:517:19
	str	r7, [r2, #8]
	.loc	7 518 19                        @ ../../M031BSP/Library/StdDriver/inc\clk.h:518:19
	ldr	r0, [sp, #4]                    @ 4-byte Reload
	str	r0, [r2]
	.loc	7 514 46                        @ ../../M031BSP/Library/StdDriver/inc\clk.h:514:46
	lsls	r0, r5, #1
.Ltmp168:
	@DEBUG_VALUE: CLK_SysTickDelay:u32TimeOutCnt <- $r0
	.loc	7 521 5                         @ ../../M031BSP/Library/StdDriver/inc\clk.h:521:5
	ldr	r5, [sp]                        @ 4-byte Reload
	subs	r7, r5, r0
	b	.LBB4_34
.Ltmp169:
.LBB4_33:                               @   in Loop: Header=BB4_34 Depth=1
	@DEBUG_VALUE: CLK_SysTickDelay:us <- 100000
	@DEBUG_VALUE: led_animasyon2:position <- 1
	adds	r7, r7, #4
	cmp	r0, #1
	beq	.LBB4_41
.Ltmp170:
.LBB4_34:                               @ =>This Inner Loop Header: Depth=1
	@DEBUG_VALUE: CLK_SysTickDelay:us <- 100000
	@DEBUG_VALUE: led_animasyon2:position <- 1
	@DEBUG_VALUE: CLK_SysTickDelay:u32TimeOutCnt <- [DW_OP_LLVM_arg 0, DW_OP_consts 4, DW_OP_consts 18446744073709551614, DW_OP_LLVM_arg 0, DW_OP_mul, DW_OP_plus, DW_OP_minus, DW_OP_consts 4, DW_OP_div, DW_OP_consts 18446744073709551612, DW_OP_mul, DW_OP_consts 2, DW_OP_LLVM_arg 0, DW_OP_mul, DW_OP_plus, DW_OP_stack_value] undef
	.loc	7 521 22 is_stmt 0              @ ../../M031BSP/Library/StdDriver/inc\clk.h:521:22
	ldr	r0, [r2]
.Ltmp171:
	@DEBUG_VALUE: CLK_SysTickDelay:u32TimeOutCnt <- [DW_OP_constu 1, DW_OP_minus, DW_OP_stack_value] $r7
	.loc	7 521 5                         @ ../../M031BSP/Library/StdDriver/inc\clk.h:521:5
	tst	r0, r3
	bne	.LBB4_41
.Ltmp172:
@ %bb.35:                               @   in Loop: Header=BB4_34 Depth=1
	@DEBUG_VALUE: CLK_SysTickDelay:u32TimeOutCnt <- [DW_OP_constu 1, DW_OP_minus, DW_OP_stack_value] $r7
	@DEBUG_VALUE: CLK_SysTickDelay:us <- 100000
	@DEBUG_VALUE: led_animasyon2:position <- 1
	@DEBUG_VALUE: CLK_SysTickDelay:u32TimeOutCnt <- [DW_OP_constu 2, DW_OP_minus, DW_OP_stack_value] $r7
	.loc	7 0 5                           @ ../../M031BSP/Library/StdDriver/inc\clk.h:0:5
	subs	r0, r7, #2
	rsbs	r5, r0, #0
	adcs	r5, r0
	.loc	7 521 22                        @ ../../M031BSP/Library/StdDriver/inc\clk.h:521:22
	ldr	r0, [r2]
	.loc	7 521 5                         @ ../../M031BSP/Library/StdDriver/inc\clk.h:521:5
	tst	r0, r3
	mov	r0, r1
	bne	.LBB4_37
.Ltmp173:
@ %bb.36:                               @   in Loop: Header=BB4_34 Depth=1
	@DEBUG_VALUE: CLK_SysTickDelay:u32TimeOutCnt <- [DW_OP_constu 2, DW_OP_minus, DW_OP_stack_value] $r7
	@DEBUG_VALUE: CLK_SysTickDelay:us <- 100000
	@DEBUG_VALUE: led_animasyon2:position <- 1
	.loc	7 0 5                           @ ../../M031BSP/Library/StdDriver/inc\clk.h:0:5
	mov	r0, r5
.Ltmp174:
.LBB4_37:                               @   in Loop: Header=BB4_34 Depth=1
	@DEBUG_VALUE: CLK_SysTickDelay:u32TimeOutCnt <- [DW_OP_constu 2, DW_OP_minus, DW_OP_stack_value] $r7
	@DEBUG_VALUE: CLK_SysTickDelay:us <- 100000
	@DEBUG_VALUE: led_animasyon2:position <- 1
	.loc	7 521 5                         @ ../../M031BSP/Library/StdDriver/inc\clk.h:521:5
	cmp	r0, #0
	bne	.LBB4_41
.Ltmp175:
@ %bb.38:                               @   in Loop: Header=BB4_34 Depth=1
	@DEBUG_VALUE: CLK_SysTickDelay:u32TimeOutCnt <- [DW_OP_constu 2, DW_OP_minus, DW_OP_stack_value] $r7
	@DEBUG_VALUE: CLK_SysTickDelay:us <- 100000
	@DEBUG_VALUE: led_animasyon2:position <- 1
	@DEBUG_VALUE: CLK_SysTickDelay:u32TimeOutCnt <- [DW_OP_constu 2, DW_OP_minus, DW_OP_stack_value] $r7
	.loc	7 521 22                        @ ../../M031BSP/Library/StdDriver/inc\clk.h:521:22
	ldr	r0, [r2]
.Ltmp176:
	@DEBUG_VALUE: CLK_SysTickDelay:u32TimeOutCnt <- [DW_OP_constu 3, DW_OP_minus, DW_OP_stack_value] $r7
	.loc	7 521 5                         @ ../../M031BSP/Library/StdDriver/inc\clk.h:521:5
	tst	r0, r3
	bne	.LBB4_41
.Ltmp177:
@ %bb.39:                               @   in Loop: Header=BB4_34 Depth=1
	@DEBUG_VALUE: CLK_SysTickDelay:u32TimeOutCnt <- [DW_OP_constu 3, DW_OP_minus, DW_OP_stack_value] $r7
	@DEBUG_VALUE: CLK_SysTickDelay:us <- 100000
	@DEBUG_VALUE: led_animasyon2:position <- 1
	@DEBUG_VALUE: CLK_SysTickDelay:u32TimeOutCnt <- [DW_OP_LLVM_arg 0, DW_OP_consts 4, DW_OP_consts 18446744073709551614, DW_OP_LLVM_arg 0, DW_OP_mul, DW_OP_plus, DW_OP_minus, DW_OP_consts 4, DW_OP_div, DW_OP_consts 18446744073709551612, DW_OP_mul, DW_OP_consts 18446744073709551612, DW_OP_consts 2, DW_OP_LLVM_arg 0, DW_OP_mul, DW_OP_plus, DW_OP_plus, DW_OP_stack_value] undef
	.loc	7 0 5                           @ ../../M031BSP/Library/StdDriver/inc\clk.h:0:5
	rsbs	r5, r7, #0
	adcs	r5, r7
	.loc	7 521 22                        @ ../../M031BSP/Library/StdDriver/inc\clk.h:521:22
	ldr	r0, [r2]
	.loc	7 521 5                         @ ../../M031BSP/Library/StdDriver/inc\clk.h:521:5
	tst	r0, r3
	mov	r0, r1
	bne	.LBB4_33
.Ltmp178:
@ %bb.40:                               @   in Loop: Header=BB4_34 Depth=1
	@DEBUG_VALUE: CLK_SysTickDelay:us <- 100000
	@DEBUG_VALUE: led_animasyon2:position <- 1
	.loc	7 0 5                           @ ../../M031BSP/Library/StdDriver/inc\clk.h:0:5
	mov	r0, r5
	b	.LBB4_33
.Ltmp179:
.LBB4_41:
	@DEBUG_VALUE: CLK_SysTickDelay:us <- 100000
	@DEBUG_VALUE: led_animasyon2:position <- 1
	ldr	r7, [sp, #8]                    @ 4-byte Reload
	.loc	7 530 19 is_stmt 1              @ ../../M031BSP/Library/StdDriver/inc\clk.h:530:19
	str	r7, [r2]
.Ltmp180:
	@DEBUG_VALUE: led_write:mask <- 0
	.loc	2 35 7                          @ ../main.c:35:7
	str	r7, [r4, #8]
	.loc	2 36 7                          @ ../main.c:36:7
	str	r7, [r4, #4]
	.loc	2 37 7                          @ ../main.c:37:7
	str	r7, [r4]
	.loc	2 38 7                          @ ../main.c:38:7
	str	r7, [r4, #32]
.Ltmp181:
	.loc	7 516 26                        @ ../../M031BSP/Library/StdDriver/inc\clk.h:516:26
	ldr	r0, __arm_cp.4_1
	ldr	r0, [r0]
	.loc	7 516 24 is_stmt 0              @ ../../M031BSP/Library/StdDriver/inc\clk.h:516:24
	ldr	r5, __arm_cp.4_2
	muls	r0, r5, r0
.Ltmp182:
	@DEBUG_VALUE: CLK_SysTickDelay:us <- 100000
	.loc	7 514 30 is_stmt 1              @ ../../M031BSP/Library/StdDriver/inc\clk.h:514:30
	ldr	r5, __arm_cp.4_3
	ldr	r5, [r5]
	.loc	7 516 19                        @ ../../M031BSP/Library/StdDriver/inc\clk.h:516:19
	str	r0, [r2, #4]
	.loc	7 517 19                        @ ../../M031BSP/Library/StdDriver/inc\clk.h:517:19
	str	r7, [r2, #8]
	.loc	7 518 19                        @ ../../M031BSP/Library/StdDriver/inc\clk.h:518:19
	ldr	r0, [sp, #4]                    @ 4-byte Reload
	str	r0, [r2]
	.loc	7 514 46                        @ ../../M031BSP/Library/StdDriver/inc\clk.h:514:46
	lsls	r0, r5, #1
.Ltmp183:
	@DEBUG_VALUE: CLK_SysTickDelay:u32TimeOutCnt <- $r0
	.loc	7 521 5                         @ ../../M031BSP/Library/StdDriver/inc\clk.h:521:5
	ldr	r5, [sp]                        @ 4-byte Reload
	subs	r7, r5, r0
	b	.LBB4_43
.Ltmp184:
.LBB4_42:                               @   in Loop: Header=BB4_43 Depth=1
	@DEBUG_VALUE: CLK_SysTickDelay:us <- 100000
	@DEBUG_VALUE: led_animasyon2:position <- 1
	adds	r7, r7, #4
	cmp	r0, #1
	beq	.LBB4_50
.Ltmp185:
.LBB4_43:                               @ =>This Inner Loop Header: Depth=1
	@DEBUG_VALUE: CLK_SysTickDelay:us <- 100000
	@DEBUG_VALUE: led_animasyon2:position <- 1
	@DEBUG_VALUE: CLK_SysTickDelay:u32TimeOutCnt <- [DW_OP_LLVM_arg 0, DW_OP_consts 4, DW_OP_consts 18446744073709551614, DW_OP_LLVM_arg 0, DW_OP_mul, DW_OP_plus, DW_OP_minus, DW_OP_consts 4, DW_OP_div, DW_OP_consts 18446744073709551612, DW_OP_mul, DW_OP_consts 2, DW_OP_LLVM_arg 0, DW_OP_mul, DW_OP_plus, DW_OP_stack_value] undef
	.loc	7 521 22 is_stmt 0              @ ../../M031BSP/Library/StdDriver/inc\clk.h:521:22
	ldr	r0, [r2]
.Ltmp186:
	@DEBUG_VALUE: CLK_SysTickDelay:u32TimeOutCnt <- [DW_OP_constu 1, DW_OP_minus, DW_OP_stack_value] $r7
	.loc	7 521 5                         @ ../../M031BSP/Library/StdDriver/inc\clk.h:521:5
	tst	r0, r3
	bne	.LBB4_50
.Ltmp187:
@ %bb.44:                               @   in Loop: Header=BB4_43 Depth=1
	@DEBUG_VALUE: CLK_SysTickDelay:u32TimeOutCnt <- [DW_OP_constu 1, DW_OP_minus, DW_OP_stack_value] $r7
	@DEBUG_VALUE: CLK_SysTickDelay:us <- 100000
	@DEBUG_VALUE: led_animasyon2:position <- 1
	@DEBUG_VALUE: CLK_SysTickDelay:u32TimeOutCnt <- [DW_OP_constu 2, DW_OP_minus, DW_OP_stack_value] $r7
	.loc	7 0 5                           @ ../../M031BSP/Library/StdDriver/inc\clk.h:0:5
	subs	r0, r7, #2
	rsbs	r5, r0, #0
	adcs	r5, r0
	.loc	7 521 22                        @ ../../M031BSP/Library/StdDriver/inc\clk.h:521:22
	ldr	r0, [r2]
	.loc	7 521 5                         @ ../../M031BSP/Library/StdDriver/inc\clk.h:521:5
	tst	r0, r3
	mov	r0, r1
	bne	.LBB4_46
.Ltmp188:
@ %bb.45:                               @   in Loop: Header=BB4_43 Depth=1
	@DEBUG_VALUE: CLK_SysTickDelay:u32TimeOutCnt <- [DW_OP_constu 2, DW_OP_minus, DW_OP_stack_value] $r7
	@DEBUG_VALUE: CLK_SysTickDelay:us <- 100000
	@DEBUG_VALUE: led_animasyon2:position <- 1
	.loc	7 0 5                           @ ../../M031BSP/Library/StdDriver/inc\clk.h:0:5
	mov	r0, r5
.Ltmp189:
.LBB4_46:                               @   in Loop: Header=BB4_43 Depth=1
	@DEBUG_VALUE: CLK_SysTickDelay:u32TimeOutCnt <- [DW_OP_constu 2, DW_OP_minus, DW_OP_stack_value] $r7
	@DEBUG_VALUE: CLK_SysTickDelay:us <- 100000
	@DEBUG_VALUE: led_animasyon2:position <- 1
	.loc	7 521 5                         @ ../../M031BSP/Library/StdDriver/inc\clk.h:521:5
	cmp	r0, #0
	bne	.LBB4_50
.Ltmp190:
@ %bb.47:                               @   in Loop: Header=BB4_43 Depth=1
	@DEBUG_VALUE: CLK_SysTickDelay:u32TimeOutCnt <- [DW_OP_constu 2, DW_OP_minus, DW_OP_stack_value] $r7
	@DEBUG_VALUE: CLK_SysTickDelay:us <- 100000
	@DEBUG_VALUE: led_animasyon2:position <- 1
	@DEBUG_VALUE: CLK_SysTickDelay:u32TimeOutCnt <- [DW_OP_constu 2, DW_OP_minus, DW_OP_stack_value] $r7
	.loc	7 521 22                        @ ../../M031BSP/Library/StdDriver/inc\clk.h:521:22
	ldr	r0, [r2]
.Ltmp191:
	@DEBUG_VALUE: CLK_SysTickDelay:u32TimeOutCnt <- [DW_OP_constu 3, DW_OP_minus, DW_OP_stack_value] $r7
	.loc	7 521 5                         @ ../../M031BSP/Library/StdDriver/inc\clk.h:521:5
	tst	r0, r3
	bne	.LBB4_50
.Ltmp192:
@ %bb.48:                               @   in Loop: Header=BB4_43 Depth=1
	@DEBUG_VALUE: CLK_SysTickDelay:u32TimeOutCnt <- [DW_OP_constu 3, DW_OP_minus, DW_OP_stack_value] $r7
	@DEBUG_VALUE: CLK_SysTickDelay:us <- 100000
	@DEBUG_VALUE: led_animasyon2:position <- 1
	@DEBUG_VALUE: CLK_SysTickDelay:u32TimeOutCnt <- [DW_OP_LLVM_arg 0, DW_OP_consts 4, DW_OP_consts 18446744073709551614, DW_OP_LLVM_arg 0, DW_OP_mul, DW_OP_plus, DW_OP_minus, DW_OP_consts 4, DW_OP_div, DW_OP_consts 18446744073709551612, DW_OP_mul, DW_OP_consts 18446744073709551612, DW_OP_consts 2, DW_OP_LLVM_arg 0, DW_OP_mul, DW_OP_plus, DW_OP_plus, DW_OP_stack_value] undef
	.loc	7 0 5                           @ ../../M031BSP/Library/StdDriver/inc\clk.h:0:5
	rsbs	r5, r7, #0
	adcs	r5, r7
	.loc	7 521 22                        @ ../../M031BSP/Library/StdDriver/inc\clk.h:521:22
	ldr	r0, [r2]
	.loc	7 521 5                         @ ../../M031BSP/Library/StdDriver/inc\clk.h:521:5
	tst	r0, r3
	mov	r0, r1
	bne	.LBB4_42
.Ltmp193:
@ %bb.49:                               @   in Loop: Header=BB4_43 Depth=1
	@DEBUG_VALUE: CLK_SysTickDelay:us <- 100000
	@DEBUG_VALUE: led_animasyon2:position <- 1
	.loc	7 0 5                           @ ../../M031BSP/Library/StdDriver/inc\clk.h:0:5
	mov	r0, r5
	b	.LBB4_42
.Ltmp194:
.LBB4_50:
	@DEBUG_VALUE: CLK_SysTickDelay:us <- 100000
	@DEBUG_VALUE: led_animasyon2:position <- 1
	ldr	r7, [sp, #8]                    @ 4-byte Reload
	.loc	7 530 19 is_stmt 1              @ ../../M031BSP/Library/StdDriver/inc\clk.h:530:19
	str	r7, [r2]
.Ltmp195:
	@DEBUG_VALUE: led_write:mask <- 3
	.loc	2 35 7                          @ ../main.c:35:7
	str	r6, [r4, #8]
	.loc	2 36 7                          @ ../main.c:36:7
	str	r6, [r4, #4]
	.loc	2 37 7                          @ ../main.c:37:7
	str	r7, [r4]
	.loc	2 38 7                          @ ../main.c:38:7
	str	r7, [r4, #32]
.Ltmp196:
	.loc	7 516 26                        @ ../../M031BSP/Library/StdDriver/inc\clk.h:516:26
	ldr	r0, __arm_cp.4_1
	ldr	r0, [r0]
	.loc	7 516 24 is_stmt 0              @ ../../M031BSP/Library/StdDriver/inc\clk.h:516:24
	ldr	r5, __arm_cp.4_2
	muls	r0, r5, r0
.Ltmp197:
	@DEBUG_VALUE: CLK_SysTickDelay:us <- 100000
	.loc	7 514 30 is_stmt 1              @ ../../M031BSP/Library/StdDriver/inc\clk.h:514:30
	ldr	r5, __arm_cp.4_3
	ldr	r5, [r5]
	.loc	7 516 19                        @ ../../M031BSP/Library/StdDriver/inc\clk.h:516:19
	str	r0, [r2, #4]
	.loc	7 517 19                        @ ../../M031BSP/Library/StdDriver/inc\clk.h:517:19
	str	r7, [r2, #8]
	.loc	7 518 19                        @ ../../M031BSP/Library/StdDriver/inc\clk.h:518:19
	ldr	r0, [sp, #4]                    @ 4-byte Reload
	str	r0, [r2]
	.loc	7 514 46                        @ ../../M031BSP/Library/StdDriver/inc\clk.h:514:46
	lsls	r0, r5, #1
.Ltmp198:
	@DEBUG_VALUE: CLK_SysTickDelay:u32TimeOutCnt <- $r0
	.loc	7 521 5                         @ ../../M031BSP/Library/StdDriver/inc\clk.h:521:5
	ldr	r5, [sp]                        @ 4-byte Reload
	subs	r7, r5, r0
	b	.LBB4_52
.Ltmp199:
.LBB4_51:                               @   in Loop: Header=BB4_52 Depth=1
	@DEBUG_VALUE: CLK_SysTickDelay:us <- 100000
	@DEBUG_VALUE: led_animasyon2:position <- 1
	adds	r7, r7, #4
	cmp	r0, #1
	beq	.LBB4_59
.Ltmp200:
.LBB4_52:                               @ =>This Inner Loop Header: Depth=1
	@DEBUG_VALUE: CLK_SysTickDelay:us <- 100000
	@DEBUG_VALUE: led_animasyon2:position <- 1
	@DEBUG_VALUE: CLK_SysTickDelay:u32TimeOutCnt <- [DW_OP_LLVM_arg 0, DW_OP_consts 4, DW_OP_consts 18446744073709551614, DW_OP_LLVM_arg 0, DW_OP_mul, DW_OP_plus, DW_OP_minus, DW_OP_consts 4, DW_OP_div, DW_OP_consts 18446744073709551612, DW_OP_mul, DW_OP_consts 2, DW_OP_LLVM_arg 0, DW_OP_mul, DW_OP_plus, DW_OP_stack_value] undef
	.loc	7 521 22 is_stmt 0              @ ../../M031BSP/Library/StdDriver/inc\clk.h:521:22
	ldr	r0, [r2]
.Ltmp201:
	@DEBUG_VALUE: CLK_SysTickDelay:u32TimeOutCnt <- [DW_OP_constu 1, DW_OP_minus, DW_OP_stack_value] $r7
	.loc	7 521 5                         @ ../../M031BSP/Library/StdDriver/inc\clk.h:521:5
	tst	r0, r3
	bne	.LBB4_59
.Ltmp202:
@ %bb.53:                               @   in Loop: Header=BB4_52 Depth=1
	@DEBUG_VALUE: CLK_SysTickDelay:u32TimeOutCnt <- [DW_OP_constu 1, DW_OP_minus, DW_OP_stack_value] $r7
	@DEBUG_VALUE: CLK_SysTickDelay:us <- 100000
	@DEBUG_VALUE: led_animasyon2:position <- 1
	@DEBUG_VALUE: CLK_SysTickDelay:u32TimeOutCnt <- [DW_OP_constu 2, DW_OP_minus, DW_OP_stack_value] $r7
	.loc	7 0 5                           @ ../../M031BSP/Library/StdDriver/inc\clk.h:0:5
	subs	r0, r7, #2
	rsbs	r5, r0, #0
	adcs	r5, r0
	.loc	7 521 22                        @ ../../M031BSP/Library/StdDriver/inc\clk.h:521:22
	ldr	r0, [r2]
	.loc	7 521 5                         @ ../../M031BSP/Library/StdDriver/inc\clk.h:521:5
	tst	r0, r3
	mov	r0, r1
	bne	.LBB4_55
.Ltmp203:
@ %bb.54:                               @   in Loop: Header=BB4_52 Depth=1
	@DEBUG_VALUE: CLK_SysTickDelay:u32TimeOutCnt <- [DW_OP_constu 2, DW_OP_minus, DW_OP_stack_value] $r7
	@DEBUG_VALUE: CLK_SysTickDelay:us <- 100000
	@DEBUG_VALUE: led_animasyon2:position <- 1
	.loc	7 0 5                           @ ../../M031BSP/Library/StdDriver/inc\clk.h:0:5
	mov	r0, r5
.Ltmp204:
.LBB4_55:                               @   in Loop: Header=BB4_52 Depth=1
	@DEBUG_VALUE: CLK_SysTickDelay:u32TimeOutCnt <- [DW_OP_constu 2, DW_OP_minus, DW_OP_stack_value] $r7
	@DEBUG_VALUE: CLK_SysTickDelay:us <- 100000
	@DEBUG_VALUE: led_animasyon2:position <- 1
	.loc	7 521 5                         @ ../../M031BSP/Library/StdDriver/inc\clk.h:521:5
	cmp	r0, #0
	bne	.LBB4_59
.Ltmp205:
@ %bb.56:                               @   in Loop: Header=BB4_52 Depth=1
	@DEBUG_VALUE: CLK_SysTickDelay:u32TimeOutCnt <- [DW_OP_constu 2, DW_OP_minus, DW_OP_stack_value] $r7
	@DEBUG_VALUE: CLK_SysTickDelay:us <- 100000
	@DEBUG_VALUE: led_animasyon2:position <- 1
	@DEBUG_VALUE: CLK_SysTickDelay:u32TimeOutCnt <- [DW_OP_constu 2, DW_OP_minus, DW_OP_stack_value] $r7
	.loc	7 521 22                        @ ../../M031BSP/Library/StdDriver/inc\clk.h:521:22
	ldr	r0, [r2]
.Ltmp206:
	@DEBUG_VALUE: CLK_SysTickDelay:u32TimeOutCnt <- [DW_OP_constu 3, DW_OP_minus, DW_OP_stack_value] $r7
	.loc	7 521 5                         @ ../../M031BSP/Library/StdDriver/inc\clk.h:521:5
	tst	r0, r3
	bne	.LBB4_59
.Ltmp207:
@ %bb.57:                               @   in Loop: Header=BB4_52 Depth=1
	@DEBUG_VALUE: CLK_SysTickDelay:u32TimeOutCnt <- [DW_OP_constu 3, DW_OP_minus, DW_OP_stack_value] $r7
	@DEBUG_VALUE: CLK_SysTickDelay:us <- 100000
	@DEBUG_VALUE: led_animasyon2:position <- 1
	@DEBUG_VALUE: CLK_SysTickDelay:u32TimeOutCnt <- [DW_OP_LLVM_arg 0, DW_OP_consts 4, DW_OP_consts 18446744073709551614, DW_OP_LLVM_arg 0, DW_OP_mul, DW_OP_plus, DW_OP_minus, DW_OP_consts 4, DW_OP_div, DW_OP_consts 18446744073709551612, DW_OP_mul, DW_OP_consts 18446744073709551612, DW_OP_consts 2, DW_OP_LLVM_arg 0, DW_OP_mul, DW_OP_plus, DW_OP_plus, DW_OP_stack_value] undef
	.loc	7 0 5                           @ ../../M031BSP/Library/StdDriver/inc\clk.h:0:5
	rsbs	r5, r7, #0
	adcs	r5, r7
	.loc	7 521 22                        @ ../../M031BSP/Library/StdDriver/inc\clk.h:521:22
	ldr	r0, [r2]
	.loc	7 521 5                         @ ../../M031BSP/Library/StdDriver/inc\clk.h:521:5
	tst	r0, r3
	mov	r0, r1
	bne	.LBB4_51
.Ltmp208:
@ %bb.58:                               @   in Loop: Header=BB4_52 Depth=1
	@DEBUG_VALUE: CLK_SysTickDelay:us <- 100000
	@DEBUG_VALUE: led_animasyon2:position <- 1
	.loc	7 0 5                           @ ../../M031BSP/Library/StdDriver/inc\clk.h:0:5
	mov	r0, r5
	b	.LBB4_51
.Ltmp209:
.LBB4_59:
	@DEBUG_VALUE: CLK_SysTickDelay:us <- 100000
	@DEBUG_VALUE: led_animasyon2:position <- 1
	ldr	r7, [sp, #8]                    @ 4-byte Reload
	.loc	7 530 19 is_stmt 1              @ ../../M031BSP/Library/StdDriver/inc\clk.h:530:19
	str	r7, [r2]
.Ltmp210:
	@DEBUG_VALUE: led_write:mask <- 12
	.loc	2 35 7                          @ ../main.c:35:7
	str	r7, [r4, #8]
	.loc	2 36 7                          @ ../main.c:36:7
	str	r7, [r4, #4]
	.loc	2 37 7                          @ ../main.c:37:7
	str	r6, [r4]
	.loc	2 38 7                          @ ../main.c:38:7
	str	r6, [r4, #32]
.Ltmp211:
	.loc	7 516 26                        @ ../../M031BSP/Library/StdDriver/inc\clk.h:516:26
	ldr	r0, __arm_cp.4_1
	ldr	r0, [r0]
	.loc	7 516 24 is_stmt 0              @ ../../M031BSP/Library/StdDriver/inc\clk.h:516:24
	ldr	r5, __arm_cp.4_2
	muls	r0, r5, r0
.Ltmp212:
	@DEBUG_VALUE: CLK_SysTickDelay:us <- 100000
	.loc	7 514 30 is_stmt 1              @ ../../M031BSP/Library/StdDriver/inc\clk.h:514:30
	ldr	r5, __arm_cp.4_3
	ldr	r5, [r5]
	.loc	7 516 19                        @ ../../M031BSP/Library/StdDriver/inc\clk.h:516:19
	str	r0, [r2, #4]
	.loc	7 517 19                        @ ../../M031BSP/Library/StdDriver/inc\clk.h:517:19
	str	r7, [r2, #8]
	.loc	7 518 19                        @ ../../M031BSP/Library/StdDriver/inc\clk.h:518:19
	ldr	r0, [sp, #4]                    @ 4-byte Reload
	str	r0, [r2]
	.loc	7 514 46                        @ ../../M031BSP/Library/StdDriver/inc\clk.h:514:46
	lsls	r0, r5, #1
.Ltmp213:
	@DEBUG_VALUE: CLK_SysTickDelay:u32TimeOutCnt <- $r0
	.loc	7 521 5                         @ ../../M031BSP/Library/StdDriver/inc\clk.h:521:5
	ldr	r5, [sp]                        @ 4-byte Reload
	subs	r7, r5, r0
	b	.LBB4_61
.Ltmp214:
.LBB4_60:                               @   in Loop: Header=BB4_61 Depth=1
	@DEBUG_VALUE: CLK_SysTickDelay:us <- 100000
	@DEBUG_VALUE: led_animasyon2:position <- 1
	adds	r7, r7, #4
	cmp	r0, #1
	beq	.LBB4_68
.Ltmp215:
.LBB4_61:                               @ =>This Inner Loop Header: Depth=1
	@DEBUG_VALUE: CLK_SysTickDelay:us <- 100000
	@DEBUG_VALUE: led_animasyon2:position <- 1
	@DEBUG_VALUE: CLK_SysTickDelay:u32TimeOutCnt <- [DW_OP_LLVM_arg 0, DW_OP_consts 4, DW_OP_consts 18446744073709551614, DW_OP_LLVM_arg 0, DW_OP_mul, DW_OP_plus, DW_OP_minus, DW_OP_consts 4, DW_OP_div, DW_OP_consts 18446744073709551612, DW_OP_mul, DW_OP_consts 2, DW_OP_LLVM_arg 0, DW_OP_mul, DW_OP_plus, DW_OP_stack_value] undef
	.loc	7 521 22 is_stmt 0              @ ../../M031BSP/Library/StdDriver/inc\clk.h:521:22
	ldr	r0, [r2]
.Ltmp216:
	@DEBUG_VALUE: CLK_SysTickDelay:u32TimeOutCnt <- [DW_OP_constu 1, DW_OP_minus, DW_OP_stack_value] $r7
	.loc	7 521 5                         @ ../../M031BSP/Library/StdDriver/inc\clk.h:521:5
	tst	r0, r3
	bne	.LBB4_68
.Ltmp217:
@ %bb.62:                               @   in Loop: Header=BB4_61 Depth=1
	@DEBUG_VALUE: CLK_SysTickDelay:u32TimeOutCnt <- [DW_OP_constu 1, DW_OP_minus, DW_OP_stack_value] $r7
	@DEBUG_VALUE: CLK_SysTickDelay:us <- 100000
	@DEBUG_VALUE: led_animasyon2:position <- 1
	@DEBUG_VALUE: CLK_SysTickDelay:u32TimeOutCnt <- [DW_OP_constu 2, DW_OP_minus, DW_OP_stack_value] $r7
	.loc	7 0 5                           @ ../../M031BSP/Library/StdDriver/inc\clk.h:0:5
	subs	r0, r7, #2
	rsbs	r5, r0, #0
	adcs	r5, r0
	.loc	7 521 22                        @ ../../M031BSP/Library/StdDriver/inc\clk.h:521:22
	ldr	r0, [r2]
	.loc	7 521 5                         @ ../../M031BSP/Library/StdDriver/inc\clk.h:521:5
	tst	r0, r3
	mov	r0, r1
	bne	.LBB4_64
.Ltmp218:
@ %bb.63:                               @   in Loop: Header=BB4_61 Depth=1
	@DEBUG_VALUE: CLK_SysTickDelay:u32TimeOutCnt <- [DW_OP_constu 2, DW_OP_minus, DW_OP_stack_value] $r7
	@DEBUG_VALUE: CLK_SysTickDelay:us <- 100000
	@DEBUG_VALUE: led_animasyon2:position <- 1
	.loc	7 0 5                           @ ../../M031BSP/Library/StdDriver/inc\clk.h:0:5
	mov	r0, r5
.Ltmp219:
.LBB4_64:                               @   in Loop: Header=BB4_61 Depth=1
	@DEBUG_VALUE: CLK_SysTickDelay:u32TimeOutCnt <- [DW_OP_constu 2, DW_OP_minus, DW_OP_stack_value] $r7
	@DEBUG_VALUE: CLK_SysTickDelay:us <- 100000
	@DEBUG_VALUE: led_animasyon2:position <- 1
	.loc	7 521 5                         @ ../../M031BSP/Library/StdDriver/inc\clk.h:521:5
	cmp	r0, #0
	bne	.LBB4_68
.Ltmp220:
@ %bb.65:                               @   in Loop: Header=BB4_61 Depth=1
	@DEBUG_VALUE: CLK_SysTickDelay:u32TimeOutCnt <- [DW_OP_constu 2, DW_OP_minus, DW_OP_stack_value] $r7
	@DEBUG_VALUE: CLK_SysTickDelay:us <- 100000
	@DEBUG_VALUE: led_animasyon2:position <- 1
	@DEBUG_VALUE: CLK_SysTickDelay:u32TimeOutCnt <- [DW_OP_constu 2, DW_OP_minus, DW_OP_stack_value] $r7
	.loc	7 521 22                        @ ../../M031BSP/Library/StdDriver/inc\clk.h:521:22
	ldr	r0, [r2]
.Ltmp221:
	@DEBUG_VALUE: CLK_SysTickDelay:u32TimeOutCnt <- [DW_OP_constu 3, DW_OP_minus, DW_OP_stack_value] $r7
	.loc	7 521 5                         @ ../../M031BSP/Library/StdDriver/inc\clk.h:521:5
	tst	r0, r3
	bne	.LBB4_68
.Ltmp222:
@ %bb.66:                               @   in Loop: Header=BB4_61 Depth=1
	@DEBUG_VALUE: CLK_SysTickDelay:u32TimeOutCnt <- [DW_OP_constu 3, DW_OP_minus, DW_OP_stack_value] $r7
	@DEBUG_VALUE: CLK_SysTickDelay:us <- 100000
	@DEBUG_VALUE: led_animasyon2:position <- 1
	@DEBUG_VALUE: CLK_SysTickDelay:u32TimeOutCnt <- [DW_OP_LLVM_arg 0, DW_OP_consts 4, DW_OP_consts 18446744073709551614, DW_OP_LLVM_arg 0, DW_OP_mul, DW_OP_plus, DW_OP_minus, DW_OP_consts 4, DW_OP_div, DW_OP_consts 18446744073709551612, DW_OP_mul, DW_OP_consts 18446744073709551612, DW_OP_consts 2, DW_OP_LLVM_arg 0, DW_OP_mul, DW_OP_plus, DW_OP_plus, DW_OP_stack_value] undef
	.loc	7 0 5                           @ ../../M031BSP/Library/StdDriver/inc\clk.h:0:5
	rsbs	r5, r7, #0
	adcs	r5, r7
	.loc	7 521 22                        @ ../../M031BSP/Library/StdDriver/inc\clk.h:521:22
	ldr	r0, [r2]
	.loc	7 521 5                         @ ../../M031BSP/Library/StdDriver/inc\clk.h:521:5
	tst	r0, r3
	mov	r0, r1
	bne	.LBB4_60
.Ltmp223:
@ %bb.67:                               @   in Loop: Header=BB4_61 Depth=1
	@DEBUG_VALUE: CLK_SysTickDelay:us <- 100000
	@DEBUG_VALUE: led_animasyon2:position <- 1
	.loc	7 0 5                           @ ../../M031BSP/Library/StdDriver/inc\clk.h:0:5
	mov	r0, r5
	b	.LBB4_60
.Ltmp224:
.LBB4_68:
	@DEBUG_VALUE: CLK_SysTickDelay:us <- 100000
	@DEBUG_VALUE: led_animasyon2:position <- 1
	ldr	r7, [sp, #8]                    @ 4-byte Reload
	.loc	7 530 19 is_stmt 1              @ ../../M031BSP/Library/StdDriver/inc\clk.h:530:19
	str	r7, [r2]
.Ltmp225:
	@DEBUG_VALUE: led_write:mask <- 0
	.loc	2 35 7                          @ ../main.c:35:7
	str	r7, [r4, #8]
	.loc	2 36 7                          @ ../main.c:36:7
	str	r7, [r4, #4]
	.loc	2 37 7                          @ ../main.c:37:7
	str	r7, [r4]
	.loc	2 38 7                          @ ../main.c:38:7
	str	r7, [r4, #32]
.Ltmp226:
	.loc	7 516 26                        @ ../../M031BSP/Library/StdDriver/inc\clk.h:516:26
	ldr	r0, __arm_cp.4_1
	ldr	r0, [r0]
	.loc	7 516 24 is_stmt 0              @ ../../M031BSP/Library/StdDriver/inc\clk.h:516:24
	ldr	r5, __arm_cp.4_2
	muls	r0, r5, r0
.Ltmp227:
	@DEBUG_VALUE: CLK_SysTickDelay:us <- 100000
	.loc	7 514 30 is_stmt 1              @ ../../M031BSP/Library/StdDriver/inc\clk.h:514:30
	ldr	r5, __arm_cp.4_3
	ldr	r5, [r5]
	.loc	7 516 19                        @ ../../M031BSP/Library/StdDriver/inc\clk.h:516:19
	str	r0, [r2, #4]
	.loc	7 517 19                        @ ../../M031BSP/Library/StdDriver/inc\clk.h:517:19
	str	r7, [r2, #8]
	.loc	7 518 19                        @ ../../M031BSP/Library/StdDriver/inc\clk.h:518:19
	ldr	r0, [sp, #4]                    @ 4-byte Reload
	str	r0, [r2]
	.loc	7 514 46                        @ ../../M031BSP/Library/StdDriver/inc\clk.h:514:46
	lsls	r0, r5, #1
.Ltmp228:
	@DEBUG_VALUE: CLK_SysTickDelay:u32TimeOutCnt <- $r0
	.loc	7 521 5                         @ ../../M031BSP/Library/StdDriver/inc\clk.h:521:5
	ldr	r5, [sp]                        @ 4-byte Reload
	subs	r7, r5, r0
	b	.LBB4_70
.Ltmp229:
.LBB4_69:                               @   in Loop: Header=BB4_70 Depth=1
	@DEBUG_VALUE: CLK_SysTickDelay:us <- 100000
	@DEBUG_VALUE: led_animasyon2:position <- 1
	adds	r7, r7, #4
	cmp	r0, #1
	beq	.LBB4_77
.Ltmp230:
.LBB4_70:                               @ =>This Inner Loop Header: Depth=1
	@DEBUG_VALUE: CLK_SysTickDelay:us <- 100000
	@DEBUG_VALUE: led_animasyon2:position <- 1
	@DEBUG_VALUE: CLK_SysTickDelay:u32TimeOutCnt <- [DW_OP_LLVM_arg 0, DW_OP_consts 4, DW_OP_consts 18446744073709551614, DW_OP_LLVM_arg 0, DW_OP_mul, DW_OP_plus, DW_OP_minus, DW_OP_consts 4, DW_OP_div, DW_OP_consts 18446744073709551612, DW_OP_mul, DW_OP_consts 2, DW_OP_LLVM_arg 0, DW_OP_mul, DW_OP_plus, DW_OP_stack_value] undef
	.loc	7 521 22 is_stmt 0              @ ../../M031BSP/Library/StdDriver/inc\clk.h:521:22
	ldr	r0, [r2]
.Ltmp231:
	@DEBUG_VALUE: CLK_SysTickDelay:u32TimeOutCnt <- [DW_OP_constu 1, DW_OP_minus, DW_OP_stack_value] $r7
	.loc	7 521 5                         @ ../../M031BSP/Library/StdDriver/inc\clk.h:521:5
	tst	r0, r3
	bne	.LBB4_77
.Ltmp232:
@ %bb.71:                               @   in Loop: Header=BB4_70 Depth=1
	@DEBUG_VALUE: CLK_SysTickDelay:u32TimeOutCnt <- [DW_OP_constu 1, DW_OP_minus, DW_OP_stack_value] $r7
	@DEBUG_VALUE: CLK_SysTickDelay:us <- 100000
	@DEBUG_VALUE: led_animasyon2:position <- 1
	@DEBUG_VALUE: CLK_SysTickDelay:u32TimeOutCnt <- [DW_OP_constu 2, DW_OP_minus, DW_OP_stack_value] $r7
	.loc	7 0 5                           @ ../../M031BSP/Library/StdDriver/inc\clk.h:0:5
	subs	r0, r7, #2
	rsbs	r5, r0, #0
	adcs	r5, r0
	.loc	7 521 22                        @ ../../M031BSP/Library/StdDriver/inc\clk.h:521:22
	ldr	r0, [r2]
	.loc	7 521 5                         @ ../../M031BSP/Library/StdDriver/inc\clk.h:521:5
	tst	r0, r3
	mov	r0, r1
	bne	.LBB4_73
.Ltmp233:
@ %bb.72:                               @   in Loop: Header=BB4_70 Depth=1
	@DEBUG_VALUE: CLK_SysTickDelay:u32TimeOutCnt <- [DW_OP_constu 2, DW_OP_minus, DW_OP_stack_value] $r7
	@DEBUG_VALUE: CLK_SysTickDelay:us <- 100000
	@DEBUG_VALUE: led_animasyon2:position <- 1
	.loc	7 0 5                           @ ../../M031BSP/Library/StdDriver/inc\clk.h:0:5
	mov	r0, r5
.Ltmp234:
.LBB4_73:                               @   in Loop: Header=BB4_70 Depth=1
	@DEBUG_VALUE: CLK_SysTickDelay:u32TimeOutCnt <- [DW_OP_constu 2, DW_OP_minus, DW_OP_stack_value] $r7
	@DEBUG_VALUE: CLK_SysTickDelay:us <- 100000
	@DEBUG_VALUE: led_animasyon2:position <- 1
	.loc	7 521 5                         @ ../../M031BSP/Library/StdDriver/inc\clk.h:521:5
	cmp	r0, #0
	bne	.LBB4_77
.Ltmp235:
@ %bb.74:                               @   in Loop: Header=BB4_70 Depth=1
	@DEBUG_VALUE: CLK_SysTickDelay:u32TimeOutCnt <- [DW_OP_constu 2, DW_OP_minus, DW_OP_stack_value] $r7
	@DEBUG_VALUE: CLK_SysTickDelay:us <- 100000
	@DEBUG_VALUE: led_animasyon2:position <- 1
	@DEBUG_VALUE: CLK_SysTickDelay:u32TimeOutCnt <- [DW_OP_constu 2, DW_OP_minus, DW_OP_stack_value] $r7
	.loc	7 521 22                        @ ../../M031BSP/Library/StdDriver/inc\clk.h:521:22
	ldr	r0, [r2]
.Ltmp236:
	@DEBUG_VALUE: CLK_SysTickDelay:u32TimeOutCnt <- [DW_OP_constu 3, DW_OP_minus, DW_OP_stack_value] $r7
	.loc	7 521 5                         @ ../../M031BSP/Library/StdDriver/inc\clk.h:521:5
	tst	r0, r3
	bne	.LBB4_77
.Ltmp237:
@ %bb.75:                               @   in Loop: Header=BB4_70 Depth=1
	@DEBUG_VALUE: CLK_SysTickDelay:u32TimeOutCnt <- [DW_OP_constu 3, DW_OP_minus, DW_OP_stack_value] $r7
	@DEBUG_VALUE: CLK_SysTickDelay:us <- 100000
	@DEBUG_VALUE: led_animasyon2:position <- 1
	@DEBUG_VALUE: CLK_SysTickDelay:u32TimeOutCnt <- [DW_OP_LLVM_arg 0, DW_OP_consts 4, DW_OP_consts 18446744073709551614, DW_OP_LLVM_arg 0, DW_OP_mul, DW_OP_plus, DW_OP_minus, DW_OP_consts 4, DW_OP_div, DW_OP_consts 18446744073709551612, DW_OP_mul, DW_OP_consts 18446744073709551612, DW_OP_consts 2, DW_OP_LLVM_arg 0, DW_OP_mul, DW_OP_plus, DW_OP_plus, DW_OP_stack_value] undef
	.loc	7 0 5                           @ ../../M031BSP/Library/StdDriver/inc\clk.h:0:5
	rsbs	r5, r7, #0
	adcs	r5, r7
	.loc	7 521 22                        @ ../../M031BSP/Library/StdDriver/inc\clk.h:521:22
	ldr	r0, [r2]
	.loc	7 521 5                         @ ../../M031BSP/Library/StdDriver/inc\clk.h:521:5
	tst	r0, r3
	mov	r0, r1
	bne	.LBB4_69
.Ltmp238:
@ %bb.76:                               @   in Loop: Header=BB4_70 Depth=1
	@DEBUG_VALUE: CLK_SysTickDelay:us <- 100000
	@DEBUG_VALUE: led_animasyon2:position <- 1
	.loc	7 0 5                           @ ../../M031BSP/Library/StdDriver/inc\clk.h:0:5
	mov	r0, r5
	b	.LBB4_69
.Ltmp239:
.LBB4_77:
	@DEBUG_VALUE: CLK_SysTickDelay:us <- 100000
	@DEBUG_VALUE: led_animasyon2:position <- 1
	ldr	r7, [sp, #8]                    @ 4-byte Reload
	.loc	7 530 19 is_stmt 1              @ ../../M031BSP/Library/StdDriver/inc\clk.h:530:19
	str	r7, [r2]
.Ltmp240:
	@DEBUG_VALUE: led_write:mask <- 12
	.loc	2 35 7                          @ ../main.c:35:7
	str	r7, [r4, #8]
	.loc	2 36 7                          @ ../main.c:36:7
	str	r7, [r4, #4]
	.loc	2 37 7                          @ ../main.c:37:7
	str	r6, [r4]
	.loc	2 38 7                          @ ../main.c:38:7
	str	r6, [r4, #32]
.Ltmp241:
	.loc	7 516 26                        @ ../../M031BSP/Library/StdDriver/inc\clk.h:516:26
	ldr	r0, __arm_cp.4_1
	ldr	r0, [r0]
	.loc	7 516 24 is_stmt 0              @ ../../M031BSP/Library/StdDriver/inc\clk.h:516:24
	ldr	r5, __arm_cp.4_2
	muls	r0, r5, r0
.Ltmp242:
	@DEBUG_VALUE: CLK_SysTickDelay:us <- 100000
	.loc	7 514 30 is_stmt 1              @ ../../M031BSP/Library/StdDriver/inc\clk.h:514:30
	ldr	r5, __arm_cp.4_3
	ldr	r5, [r5]
	.loc	7 516 19                        @ ../../M031BSP/Library/StdDriver/inc\clk.h:516:19
	str	r0, [r2, #4]
	.loc	7 517 19                        @ ../../M031BSP/Library/StdDriver/inc\clk.h:517:19
	str	r7, [r2, #8]
	.loc	7 518 19                        @ ../../M031BSP/Library/StdDriver/inc\clk.h:518:19
	ldr	r0, [sp, #4]                    @ 4-byte Reload
	str	r0, [r2]
	.loc	7 514 46                        @ ../../M031BSP/Library/StdDriver/inc\clk.h:514:46
	lsls	r0, r5, #1
.Ltmp243:
	@DEBUG_VALUE: CLK_SysTickDelay:u32TimeOutCnt <- $r0
	.loc	7 521 5                         @ ../../M031BSP/Library/StdDriver/inc\clk.h:521:5
	ldr	r5, [sp]                        @ 4-byte Reload
	subs	r7, r5, r0
	b	.LBB4_79
.Ltmp244:
.LBB4_78:                               @   in Loop: Header=BB4_79 Depth=1
	@DEBUG_VALUE: CLK_SysTickDelay:us <- 100000
	@DEBUG_VALUE: led_animasyon2:position <- 1
	adds	r7, r7, #4
	cmp	r0, #1
	beq	.LBB4_86
.Ltmp245:
.LBB4_79:                               @ =>This Inner Loop Header: Depth=1
	@DEBUG_VALUE: CLK_SysTickDelay:us <- 100000
	@DEBUG_VALUE: led_animasyon2:position <- 1
	@DEBUG_VALUE: CLK_SysTickDelay:u32TimeOutCnt <- [DW_OP_LLVM_arg 0, DW_OP_consts 4, DW_OP_consts 18446744073709551614, DW_OP_LLVM_arg 0, DW_OP_mul, DW_OP_plus, DW_OP_minus, DW_OP_consts 4, DW_OP_div, DW_OP_consts 18446744073709551612, DW_OP_mul, DW_OP_consts 2, DW_OP_LLVM_arg 0, DW_OP_mul, DW_OP_plus, DW_OP_stack_value] undef
	.loc	7 521 22 is_stmt 0              @ ../../M031BSP/Library/StdDriver/inc\clk.h:521:22
	ldr	r0, [r2]
.Ltmp246:
	@DEBUG_VALUE: CLK_SysTickDelay:u32TimeOutCnt <- [DW_OP_constu 1, DW_OP_minus, DW_OP_stack_value] $r7
	.loc	7 521 5                         @ ../../M031BSP/Library/StdDriver/inc\clk.h:521:5
	tst	r0, r3
	bne	.LBB4_86
.Ltmp247:
@ %bb.80:                               @   in Loop: Header=BB4_79 Depth=1
	@DEBUG_VALUE: CLK_SysTickDelay:u32TimeOutCnt <- [DW_OP_constu 1, DW_OP_minus, DW_OP_stack_value] $r7
	@DEBUG_VALUE: CLK_SysTickDelay:us <- 100000
	@DEBUG_VALUE: led_animasyon2:position <- 1
	@DEBUG_VALUE: CLK_SysTickDelay:u32TimeOutCnt <- [DW_OP_constu 2, DW_OP_minus, DW_OP_stack_value] $r7
	.loc	7 0 5                           @ ../../M031BSP/Library/StdDriver/inc\clk.h:0:5
	subs	r0, r7, #2
	rsbs	r5, r0, #0
	adcs	r5, r0
	.loc	7 521 22                        @ ../../M031BSP/Library/StdDriver/inc\clk.h:521:22
	ldr	r0, [r2]
	.loc	7 521 5                         @ ../../M031BSP/Library/StdDriver/inc\clk.h:521:5
	tst	r0, r3
	mov	r0, r1
	bne	.LBB4_82
.Ltmp248:
@ %bb.81:                               @   in Loop: Header=BB4_79 Depth=1
	@DEBUG_VALUE: CLK_SysTickDelay:u32TimeOutCnt <- [DW_OP_constu 2, DW_OP_minus, DW_OP_stack_value] $r7
	@DEBUG_VALUE: CLK_SysTickDelay:us <- 100000
	@DEBUG_VALUE: led_animasyon2:position <- 1
	.loc	7 0 5                           @ ../../M031BSP/Library/StdDriver/inc\clk.h:0:5
	mov	r0, r5
.Ltmp249:
.LBB4_82:                               @   in Loop: Header=BB4_79 Depth=1
	@DEBUG_VALUE: CLK_SysTickDelay:u32TimeOutCnt <- [DW_OP_constu 2, DW_OP_minus, DW_OP_stack_value] $r7
	@DEBUG_VALUE: CLK_SysTickDelay:us <- 100000
	@DEBUG_VALUE: led_animasyon2:position <- 1
	.loc	7 521 5                         @ ../../M031BSP/Library/StdDriver/inc\clk.h:521:5
	cmp	r0, #0
	bne	.LBB4_86
.Ltmp250:
@ %bb.83:                               @   in Loop: Header=BB4_79 Depth=1
	@DEBUG_VALUE: CLK_SysTickDelay:u32TimeOutCnt <- [DW_OP_constu 2, DW_OP_minus, DW_OP_stack_value] $r7
	@DEBUG_VALUE: CLK_SysTickDelay:us <- 100000
	@DEBUG_VALUE: led_animasyon2:position <- 1
	@DEBUG_VALUE: CLK_SysTickDelay:u32TimeOutCnt <- [DW_OP_constu 2, DW_OP_minus, DW_OP_stack_value] $r7
	.loc	7 521 22                        @ ../../M031BSP/Library/StdDriver/inc\clk.h:521:22
	ldr	r0, [r2]
.Ltmp251:
	@DEBUG_VALUE: CLK_SysTickDelay:u32TimeOutCnt <- [DW_OP_constu 3, DW_OP_minus, DW_OP_stack_value] $r7
	.loc	7 521 5                         @ ../../M031BSP/Library/StdDriver/inc\clk.h:521:5
	tst	r0, r3
	bne	.LBB4_86
.Ltmp252:
@ %bb.84:                               @   in Loop: Header=BB4_79 Depth=1
	@DEBUG_VALUE: CLK_SysTickDelay:u32TimeOutCnt <- [DW_OP_constu 3, DW_OP_minus, DW_OP_stack_value] $r7
	@DEBUG_VALUE: CLK_SysTickDelay:us <- 100000
	@DEBUG_VALUE: led_animasyon2:position <- 1
	@DEBUG_VALUE: CLK_SysTickDelay:u32TimeOutCnt <- [DW_OP_LLVM_arg 0, DW_OP_consts 4, DW_OP_consts 18446744073709551614, DW_OP_LLVM_arg 0, DW_OP_mul, DW_OP_plus, DW_OP_minus, DW_OP_consts 4, DW_OP_div, DW_OP_consts 18446744073709551612, DW_OP_mul, DW_OP_consts 18446744073709551612, DW_OP_consts 2, DW_OP_LLVM_arg 0, DW_OP_mul, DW_OP_plus, DW_OP_plus, DW_OP_stack_value] undef
	.loc	7 0 5                           @ ../../M031BSP/Library/StdDriver/inc\clk.h:0:5
	rsbs	r5, r7, #0
	adcs	r5, r7
	.loc	7 521 22                        @ ../../M031BSP/Library/StdDriver/inc\clk.h:521:22
	ldr	r0, [r2]
	.loc	7 521 5                         @ ../../M031BSP/Library/StdDriver/inc\clk.h:521:5
	tst	r0, r3
	mov	r0, r1
	bne	.LBB4_78
.Ltmp253:
@ %bb.85:                               @   in Loop: Header=BB4_79 Depth=1
	@DEBUG_VALUE: CLK_SysTickDelay:us <- 100000
	@DEBUG_VALUE: led_animasyon2:position <- 1
	.loc	7 0 5                           @ ../../M031BSP/Library/StdDriver/inc\clk.h:0:5
	mov	r0, r5
	b	.LBB4_78
.Ltmp254:
.LBB4_86:
	@DEBUG_VALUE: CLK_SysTickDelay:us <- 100000
	@DEBUG_VALUE: led_animasyon2:position <- 1
	ldr	r7, [sp, #8]                    @ 4-byte Reload
	.loc	7 530 19 is_stmt 1              @ ../../M031BSP/Library/StdDriver/inc\clk.h:530:19
	str	r7, [r2]
.Ltmp255:
	@DEBUG_VALUE: led_write:mask <- 12
	.loc	2 35 7                          @ ../main.c:35:7
	str	r7, [r4, #8]
	.loc	2 36 7                          @ ../main.c:36:7
	str	r7, [r4, #4]
	.loc	2 37 7                          @ ../main.c:37:7
	str	r6, [r4]
	.loc	2 38 7                          @ ../main.c:38:7
	str	r6, [r4, #32]
.Ltmp256:
	.loc	7 516 26                        @ ../../M031BSP/Library/StdDriver/inc\clk.h:516:26
	ldr	r0, __arm_cp.4_1
	ldr	r0, [r0]
	.loc	7 516 24 is_stmt 0              @ ../../M031BSP/Library/StdDriver/inc\clk.h:516:24
	ldr	r5, __arm_cp.4_2
	muls	r0, r5, r0
.Ltmp257:
	@DEBUG_VALUE: CLK_SysTickDelay:us <- 100000
	.loc	7 514 30 is_stmt 1              @ ../../M031BSP/Library/StdDriver/inc\clk.h:514:30
	ldr	r5, __arm_cp.4_3
	ldr	r5, [r5]
	.loc	7 516 19                        @ ../../M031BSP/Library/StdDriver/inc\clk.h:516:19
	str	r0, [r2, #4]
	.loc	7 517 19                        @ ../../M031BSP/Library/StdDriver/inc\clk.h:517:19
	str	r7, [r2, #8]
	.loc	7 518 19                        @ ../../M031BSP/Library/StdDriver/inc\clk.h:518:19
	ldr	r0, [sp, #4]                    @ 4-byte Reload
	str	r0, [r2]
	.loc	7 514 46                        @ ../../M031BSP/Library/StdDriver/inc\clk.h:514:46
	lsls	r0, r5, #1
.Ltmp258:
	@DEBUG_VALUE: CLK_SysTickDelay:u32TimeOutCnt <- $r0
	.loc	7 521 5                         @ ../../M031BSP/Library/StdDriver/inc\clk.h:521:5
	ldr	r5, [sp]                        @ 4-byte Reload
	subs	r7, r5, r0
	b	.LBB4_88
.Ltmp259:
.LBB4_87:                               @   in Loop: Header=BB4_88 Depth=1
	@DEBUG_VALUE: CLK_SysTickDelay:us <- 100000
	@DEBUG_VALUE: led_animasyon2:position <- 1
	adds	r7, r7, #4
	cmp	r0, #1
	beq	.LBB4_95
.Ltmp260:
.LBB4_88:                               @ =>This Inner Loop Header: Depth=1
	@DEBUG_VALUE: CLK_SysTickDelay:us <- 100000
	@DEBUG_VALUE: led_animasyon2:position <- 1
	@DEBUG_VALUE: CLK_SysTickDelay:u32TimeOutCnt <- [DW_OP_LLVM_arg 0, DW_OP_consts 4, DW_OP_consts 18446744073709551614, DW_OP_LLVM_arg 0, DW_OP_mul, DW_OP_plus, DW_OP_minus, DW_OP_consts 4, DW_OP_div, DW_OP_consts 18446744073709551612, DW_OP_mul, DW_OP_consts 2, DW_OP_LLVM_arg 0, DW_OP_mul, DW_OP_plus, DW_OP_stack_value] undef
	.loc	7 521 22 is_stmt 0              @ ../../M031BSP/Library/StdDriver/inc\clk.h:521:22
	ldr	r0, [r2]
.Ltmp261:
	@DEBUG_VALUE: CLK_SysTickDelay:u32TimeOutCnt <- [DW_OP_constu 1, DW_OP_minus, DW_OP_stack_value] $r7
	.loc	7 521 5                         @ ../../M031BSP/Library/StdDriver/inc\clk.h:521:5
	tst	r0, r3
	bne	.LBB4_95
.Ltmp262:
@ %bb.89:                               @   in Loop: Header=BB4_88 Depth=1
	@DEBUG_VALUE: CLK_SysTickDelay:u32TimeOutCnt <- [DW_OP_constu 1, DW_OP_minus, DW_OP_stack_value] $r7
	@DEBUG_VALUE: CLK_SysTickDelay:us <- 100000
	@DEBUG_VALUE: led_animasyon2:position <- 1
	@DEBUG_VALUE: CLK_SysTickDelay:u32TimeOutCnt <- [DW_OP_constu 2, DW_OP_minus, DW_OP_stack_value] $r7
	.loc	7 0 5                           @ ../../M031BSP/Library/StdDriver/inc\clk.h:0:5
	subs	r0, r7, #2
	rsbs	r5, r0, #0
	adcs	r5, r0
	.loc	7 521 22                        @ ../../M031BSP/Library/StdDriver/inc\clk.h:521:22
	ldr	r0, [r2]
	.loc	7 521 5                         @ ../../M031BSP/Library/StdDriver/inc\clk.h:521:5
	tst	r0, r3
	mov	r0, r1
	bne	.LBB4_91
.Ltmp263:
@ %bb.90:                               @   in Loop: Header=BB4_88 Depth=1
	@DEBUG_VALUE: CLK_SysTickDelay:u32TimeOutCnt <- [DW_OP_constu 2, DW_OP_minus, DW_OP_stack_value] $r7
	@DEBUG_VALUE: CLK_SysTickDelay:us <- 100000
	@DEBUG_VALUE: led_animasyon2:position <- 1
	.loc	7 0 5                           @ ../../M031BSP/Library/StdDriver/inc\clk.h:0:5
	mov	r0, r5
.Ltmp264:
.LBB4_91:                               @   in Loop: Header=BB4_88 Depth=1
	@DEBUG_VALUE: CLK_SysTickDelay:u32TimeOutCnt <- [DW_OP_constu 2, DW_OP_minus, DW_OP_stack_value] $r7
	@DEBUG_VALUE: CLK_SysTickDelay:us <- 100000
	@DEBUG_VALUE: led_animasyon2:position <- 1
	.loc	7 521 5                         @ ../../M031BSP/Library/StdDriver/inc\clk.h:521:5
	cmp	r0, #0
	bne	.LBB4_95
.Ltmp265:
@ %bb.92:                               @   in Loop: Header=BB4_88 Depth=1
	@DEBUG_VALUE: CLK_SysTickDelay:u32TimeOutCnt <- [DW_OP_constu 2, DW_OP_minus, DW_OP_stack_value] $r7
	@DEBUG_VALUE: CLK_SysTickDelay:us <- 100000
	@DEBUG_VALUE: led_animasyon2:position <- 1
	@DEBUG_VALUE: CLK_SysTickDelay:u32TimeOutCnt <- [DW_OP_constu 2, DW_OP_minus, DW_OP_stack_value] $r7
	.loc	7 521 22                        @ ../../M031BSP/Library/StdDriver/inc\clk.h:521:22
	ldr	r0, [r2]
.Ltmp266:
	@DEBUG_VALUE: CLK_SysTickDelay:u32TimeOutCnt <- [DW_OP_constu 3, DW_OP_minus, DW_OP_stack_value] $r7
	.loc	7 521 5                         @ ../../M031BSP/Library/StdDriver/inc\clk.h:521:5
	tst	r0, r3
	bne	.LBB4_95
.Ltmp267:
@ %bb.93:                               @   in Loop: Header=BB4_88 Depth=1
	@DEBUG_VALUE: CLK_SysTickDelay:u32TimeOutCnt <- [DW_OP_constu 3, DW_OP_minus, DW_OP_stack_value] $r7
	@DEBUG_VALUE: CLK_SysTickDelay:us <- 100000
	@DEBUG_VALUE: led_animasyon2:position <- 1
	@DEBUG_VALUE: CLK_SysTickDelay:u32TimeOutCnt <- [DW_OP_LLVM_arg 0, DW_OP_consts 4, DW_OP_consts 18446744073709551614, DW_OP_LLVM_arg 0, DW_OP_mul, DW_OP_plus, DW_OP_minus, DW_OP_consts 4, DW_OP_div, DW_OP_consts 18446744073709551612, DW_OP_mul, DW_OP_consts 18446744073709551612, DW_OP_consts 2, DW_OP_LLVM_arg 0, DW_OP_mul, DW_OP_plus, DW_OP_plus, DW_OP_stack_value] undef
	.loc	7 0 5                           @ ../../M031BSP/Library/StdDriver/inc\clk.h:0:5
	rsbs	r5, r7, #0
	adcs	r5, r7
	.loc	7 521 22                        @ ../../M031BSP/Library/StdDriver/inc\clk.h:521:22
	ldr	r0, [r2]
	.loc	7 521 5                         @ ../../M031BSP/Library/StdDriver/inc\clk.h:521:5
	tst	r0, r3
	mov	r0, r1
	bne	.LBB4_87
.Ltmp268:
@ %bb.94:                               @   in Loop: Header=BB4_88 Depth=1
	@DEBUG_VALUE: CLK_SysTickDelay:us <- 100000
	@DEBUG_VALUE: led_animasyon2:position <- 1
	.loc	7 0 5                           @ ../../M031BSP/Library/StdDriver/inc\clk.h:0:5
	mov	r0, r5
	b	.LBB4_87
.Ltmp269:
.LBB4_95:
	@DEBUG_VALUE: CLK_SysTickDelay:us <- 100000
	@DEBUG_VALUE: led_animasyon2:position <- 1
	ldr	r7, [sp, #8]                    @ 4-byte Reload
	.loc	7 530 19 is_stmt 1              @ ../../M031BSP/Library/StdDriver/inc\clk.h:530:19
	str	r7, [r2]
.Ltmp270:
	@DEBUG_VALUE: led_write:mask <- 0
	.loc	2 35 7                          @ ../main.c:35:7
	str	r7, [r4, #8]
	.loc	2 36 7                          @ ../main.c:36:7
	str	r7, [r4, #4]
	.loc	2 37 7                          @ ../main.c:37:7
	str	r7, [r4]
	.loc	2 38 7                          @ ../main.c:38:7
	str	r7, [r4, #32]
.Ltmp271:
	.loc	7 516 26                        @ ../../M031BSP/Library/StdDriver/inc\clk.h:516:26
	ldr	r0, __arm_cp.4_1
	ldr	r0, [r0]
	.loc	7 516 24 is_stmt 0              @ ../../M031BSP/Library/StdDriver/inc\clk.h:516:24
	ldr	r5, __arm_cp.4_2
	muls	r0, r5, r0
.Ltmp272:
	@DEBUG_VALUE: CLK_SysTickDelay:us <- 100000
	.loc	7 514 30 is_stmt 1              @ ../../M031BSP/Library/StdDriver/inc\clk.h:514:30
	ldr	r5, __arm_cp.4_3
	ldr	r5, [r5]
	.loc	7 516 19                        @ ../../M031BSP/Library/StdDriver/inc\clk.h:516:19
	str	r0, [r2, #4]
	.loc	7 517 19                        @ ../../M031BSP/Library/StdDriver/inc\clk.h:517:19
	str	r7, [r2, #8]
	.loc	7 518 19                        @ ../../M031BSP/Library/StdDriver/inc\clk.h:518:19
	ldr	r0, [sp, #4]                    @ 4-byte Reload
	str	r0, [r2]
	.loc	7 514 46                        @ ../../M031BSP/Library/StdDriver/inc\clk.h:514:46
	lsls	r0, r5, #1
.Ltmp273:
	@DEBUG_VALUE: CLK_SysTickDelay:u32TimeOutCnt <- $r0
	.loc	7 521 5                         @ ../../M031BSP/Library/StdDriver/inc\clk.h:521:5
	ldr	r5, [sp]                        @ 4-byte Reload
	subs	r7, r5, r0
	b	.LBB4_97
.Ltmp274:
.LBB4_96:                               @   in Loop: Header=BB4_97 Depth=1
	@DEBUG_VALUE: CLK_SysTickDelay:us <- 100000
	@DEBUG_VALUE: led_animasyon2:position <- 1
	adds	r7, r7, #4
	cmp	r0, #1
	beq	.LBB4_104
.Ltmp275:
.LBB4_97:                               @ =>This Inner Loop Header: Depth=1
	@DEBUG_VALUE: CLK_SysTickDelay:us <- 100000
	@DEBUG_VALUE: led_animasyon2:position <- 1
	@DEBUG_VALUE: CLK_SysTickDelay:u32TimeOutCnt <- [DW_OP_LLVM_arg 0, DW_OP_consts 4, DW_OP_consts 18446744073709551614, DW_OP_LLVM_arg 0, DW_OP_mul, DW_OP_plus, DW_OP_minus, DW_OP_consts 4, DW_OP_div, DW_OP_consts 18446744073709551612, DW_OP_mul, DW_OP_consts 2, DW_OP_LLVM_arg 0, DW_OP_mul, DW_OP_plus, DW_OP_stack_value] undef
	.loc	7 521 22 is_stmt 0              @ ../../M031BSP/Library/StdDriver/inc\clk.h:521:22
	ldr	r0, [r2]
.Ltmp276:
	@DEBUG_VALUE: CLK_SysTickDelay:u32TimeOutCnt <- [DW_OP_constu 1, DW_OP_minus, DW_OP_stack_value] $r7
	.loc	7 521 5                         @ ../../M031BSP/Library/StdDriver/inc\clk.h:521:5
	tst	r0, r3
	bne	.LBB4_104
.Ltmp277:
@ %bb.98:                               @   in Loop: Header=BB4_97 Depth=1
	@DEBUG_VALUE: CLK_SysTickDelay:u32TimeOutCnt <- [DW_OP_constu 1, DW_OP_minus, DW_OP_stack_value] $r7
	@DEBUG_VALUE: CLK_SysTickDelay:us <- 100000
	@DEBUG_VALUE: led_animasyon2:position <- 1
	@DEBUG_VALUE: CLK_SysTickDelay:u32TimeOutCnt <- [DW_OP_constu 2, DW_OP_minus, DW_OP_stack_value] $r7
	.loc	7 0 5                           @ ../../M031BSP/Library/StdDriver/inc\clk.h:0:5
	subs	r0, r7, #2
	rsbs	r5, r0, #0
	adcs	r5, r0
	.loc	7 521 22                        @ ../../M031BSP/Library/StdDriver/inc\clk.h:521:22
	ldr	r0, [r2]
	.loc	7 521 5                         @ ../../M031BSP/Library/StdDriver/inc\clk.h:521:5
	tst	r0, r3
	mov	r0, r1
	bne	.LBB4_100
.Ltmp278:
@ %bb.99:                               @   in Loop: Header=BB4_97 Depth=1
	@DEBUG_VALUE: CLK_SysTickDelay:u32TimeOutCnt <- [DW_OP_constu 2, DW_OP_minus, DW_OP_stack_value] $r7
	@DEBUG_VALUE: CLK_SysTickDelay:us <- 100000
	@DEBUG_VALUE: led_animasyon2:position <- 1
	.loc	7 0 5                           @ ../../M031BSP/Library/StdDriver/inc\clk.h:0:5
	mov	r0, r5
.Ltmp279:
.LBB4_100:                              @   in Loop: Header=BB4_97 Depth=1
	@DEBUG_VALUE: CLK_SysTickDelay:u32TimeOutCnt <- [DW_OP_constu 2, DW_OP_minus, DW_OP_stack_value] $r7
	@DEBUG_VALUE: CLK_SysTickDelay:us <- 100000
	@DEBUG_VALUE: led_animasyon2:position <- 1
	.loc	7 521 5                         @ ../../M031BSP/Library/StdDriver/inc\clk.h:521:5
	cmp	r0, #0
	bne	.LBB4_104
.Ltmp280:
@ %bb.101:                              @   in Loop: Header=BB4_97 Depth=1
	@DEBUG_VALUE: CLK_SysTickDelay:u32TimeOutCnt <- [DW_OP_constu 2, DW_OP_minus, DW_OP_stack_value] $r7
	@DEBUG_VALUE: CLK_SysTickDelay:us <- 100000
	@DEBUG_VALUE: led_animasyon2:position <- 1
	@DEBUG_VALUE: CLK_SysTickDelay:u32TimeOutCnt <- [DW_OP_constu 2, DW_OP_minus, DW_OP_stack_value] $r7
	.loc	7 521 22                        @ ../../M031BSP/Library/StdDriver/inc\clk.h:521:22
	ldr	r0, [r2]
.Ltmp281:
	@DEBUG_VALUE: CLK_SysTickDelay:u32TimeOutCnt <- [DW_OP_constu 3, DW_OP_minus, DW_OP_stack_value] $r7
	.loc	7 521 5                         @ ../../M031BSP/Library/StdDriver/inc\clk.h:521:5
	tst	r0, r3
	bne	.LBB4_104
.Ltmp282:
@ %bb.102:                              @   in Loop: Header=BB4_97 Depth=1
	@DEBUG_VALUE: CLK_SysTickDelay:u32TimeOutCnt <- [DW_OP_constu 3, DW_OP_minus, DW_OP_stack_value] $r7
	@DEBUG_VALUE: CLK_SysTickDelay:us <- 100000
	@DEBUG_VALUE: led_animasyon2:position <- 1
	@DEBUG_VALUE: CLK_SysTickDelay:u32TimeOutCnt <- [DW_OP_LLVM_arg 0, DW_OP_consts 4, DW_OP_consts 18446744073709551614, DW_OP_LLVM_arg 0, DW_OP_mul, DW_OP_plus, DW_OP_minus, DW_OP_consts 4, DW_OP_div, DW_OP_consts 18446744073709551612, DW_OP_mul, DW_OP_consts 18446744073709551612, DW_OP_consts 2, DW_OP_LLVM_arg 0, DW_OP_mul, DW_OP_plus, DW_OP_plus, DW_OP_stack_value] undef
	.loc	7 0 5                           @ ../../M031BSP/Library/StdDriver/inc\clk.h:0:5
	rsbs	r5, r7, #0
	adcs	r5, r7
	.loc	7 521 22                        @ ../../M031BSP/Library/StdDriver/inc\clk.h:521:22
	ldr	r0, [r2]
	.loc	7 521 5                         @ ../../M031BSP/Library/StdDriver/inc\clk.h:521:5
	tst	r0, r3
	mov	r0, r1
	bne	.LBB4_96
.Ltmp283:
@ %bb.103:                              @   in Loop: Header=BB4_97 Depth=1
	@DEBUG_VALUE: CLK_SysTickDelay:us <- 100000
	@DEBUG_VALUE: led_animasyon2:position <- 1
	.loc	7 0 5                           @ ../../M031BSP/Library/StdDriver/inc\clk.h:0:5
	mov	r0, r5
	b	.LBB4_96
.Ltmp284:
.LBB4_104:
	@DEBUG_VALUE: CLK_SysTickDelay:us <- 100000
	@DEBUG_VALUE: led_animasyon2:position <- 1
	ldr	r5, [sp, #8]                    @ 4-byte Reload
	.loc	7 530 19 is_stmt 1              @ ../../M031BSP/Library/StdDriver/inc\clk.h:530:19
	str	r5, [r2]
.Ltmp285:
	@DEBUG_VALUE: led_write:mask <- 12
	.loc	2 35 7                          @ ../main.c:35:7
	str	r5, [r4, #8]
	.loc	2 36 7                          @ ../main.c:36:7
	str	r5, [r4, #4]
	.loc	2 37 7                          @ ../main.c:37:7
	str	r6, [r4]
	.loc	2 38 7                          @ ../main.c:38:7
	str	r6, [r4, #32]
.Ltmp286:
	.loc	7 516 26                        @ ../../M031BSP/Library/StdDriver/inc\clk.h:516:26
	ldr	r0, __arm_cp.4_1
	ldr	r0, [r0]
	ldr	r4, __arm_cp.4_2
	.loc	7 516 24 is_stmt 0              @ ../../M031BSP/Library/StdDriver/inc\clk.h:516:24
	muls	r4, r0, r4
.Ltmp287:
	@DEBUG_VALUE: CLK_SysTickDelay:us <- 100000
	.loc	7 514 30 is_stmt 1              @ ../../M031BSP/Library/StdDriver/inc\clk.h:514:30
	ldr	r0, __arm_cp.4_3
	ldr	r0, [r0]
	.loc	7 516 19                        @ ../../M031BSP/Library/StdDriver/inc\clk.h:516:19
	str	r4, [r2, #4]
	.loc	7 517 19                        @ ../../M031BSP/Library/StdDriver/inc\clk.h:517:19
	str	r5, [r2, #8]
	.loc	7 518 19                        @ ../../M031BSP/Library/StdDriver/inc\clk.h:518:19
	ldr	r4, [sp, #4]                    @ 4-byte Reload
	str	r4, [r2]
	.loc	7 514 46                        @ ../../M031BSP/Library/StdDriver/inc\clk.h:514:46
	lsls	r0, r0, #1
.Ltmp288:
	@DEBUG_VALUE: CLK_SysTickDelay:u32TimeOutCnt <- $r0
	.loc	7 521 5                         @ ../../M031BSP/Library/StdDriver/inc\clk.h:521:5
	ldr	r4, [sp]                        @ 4-byte Reload
	subs	r4, r4, r0
	b	.LBB4_109
.Ltmp289:
	.p2align	2
@ %bb.105:
	.loc	7 0 5 is_stmt 0                 @ ../../M031BSP/Library/StdDriver/inc\clk.h:0:5
.LCPI4_10:
	.long	CyclesPerUs
	.p2align	2
@ %bb.106:
.LCPI4_11:
	.long	100000                          @ 0x186a0
	.p2align	2
@ %bb.107:
.LCPI4_12:
	.long	SystemCoreClock
	.p2align	1
.LBB4_108:                              @   in Loop: Header=BB4_109 Depth=1
.Ltmp290:
	@DEBUG_VALUE: CLK_SysTickDelay:us <- 100000
	@DEBUG_VALUE: led_animasyon2:position <- 1
	.loc	7 521 5                         @ ../../M031BSP/Library/StdDriver/inc\clk.h:521:5
	adds	r4, r4, #4
	cmp	r0, #1
	beq	.LBB4_116
.Ltmp291:
.LBB4_109:                              @ =>This Inner Loop Header: Depth=1
	@DEBUG_VALUE: CLK_SysTickDelay:us <- 100000
	@DEBUG_VALUE: led_animasyon2:position <- 1
	@DEBUG_VALUE: CLK_SysTickDelay:u32TimeOutCnt <- [DW_OP_LLVM_arg 0, DW_OP_consts 4, DW_OP_consts 18446744073709551614, DW_OP_LLVM_arg 0, DW_OP_mul, DW_OP_plus, DW_OP_minus, DW_OP_consts 4, DW_OP_div, DW_OP_consts 18446744073709551612, DW_OP_mul, DW_OP_consts 2, DW_OP_LLVM_arg 0, DW_OP_mul, DW_OP_plus, DW_OP_stack_value] undef
	.loc	7 521 22                        @ ../../M031BSP/Library/StdDriver/inc\clk.h:521:22
	ldr	r0, [r2]
.Ltmp292:
	@DEBUG_VALUE: CLK_SysTickDelay:u32TimeOutCnt <- [DW_OP_constu 1, DW_OP_minus, DW_OP_stack_value] $r4
	.loc	7 521 5                         @ ../../M031BSP/Library/StdDriver/inc\clk.h:521:5
	tst	r0, r3
	bne	.LBB4_116
.Ltmp293:
@ %bb.110:                              @   in Loop: Header=BB4_109 Depth=1
	@DEBUG_VALUE: CLK_SysTickDelay:u32TimeOutCnt <- [DW_OP_constu 1, DW_OP_minus, DW_OP_stack_value] $r4
	@DEBUG_VALUE: CLK_SysTickDelay:us <- 100000
	@DEBUG_VALUE: led_animasyon2:position <- 1
	@DEBUG_VALUE: CLK_SysTickDelay:u32TimeOutCnt <- [DW_OP_constu 2, DW_OP_minus, DW_OP_stack_value] $r4
	.loc	7 0 5                           @ ../../M031BSP/Library/StdDriver/inc\clk.h:0:5
	subs	r0, r4, #2
	rsbs	r5, r0, #0
	adcs	r5, r0
	.loc	7 521 22                        @ ../../M031BSP/Library/StdDriver/inc\clk.h:521:22
	ldr	r0, [r2]
	.loc	7 521 5                         @ ../../M031BSP/Library/StdDriver/inc\clk.h:521:5
	tst	r0, r3
	mov	r0, r1
	bne	.LBB4_112
.Ltmp294:
@ %bb.111:                              @   in Loop: Header=BB4_109 Depth=1
	@DEBUG_VALUE: CLK_SysTickDelay:u32TimeOutCnt <- [DW_OP_constu 2, DW_OP_minus, DW_OP_stack_value] $r4
	@DEBUG_VALUE: CLK_SysTickDelay:us <- 100000
	@DEBUG_VALUE: led_animasyon2:position <- 1
	.loc	7 0 5                           @ ../../M031BSP/Library/StdDriver/inc\clk.h:0:5
	mov	r0, r5
.Ltmp295:
.LBB4_112:                              @   in Loop: Header=BB4_109 Depth=1
	@DEBUG_VALUE: CLK_SysTickDelay:u32TimeOutCnt <- [DW_OP_constu 2, DW_OP_minus, DW_OP_stack_value] $r4
	@DEBUG_VALUE: CLK_SysTickDelay:us <- 100000
	@DEBUG_VALUE: led_animasyon2:position <- 1
	.loc	7 521 5                         @ ../../M031BSP/Library/StdDriver/inc\clk.h:521:5
	cmp	r0, #0
	bne	.LBB4_116
.Ltmp296:
@ %bb.113:                              @   in Loop: Header=BB4_109 Depth=1
	@DEBUG_VALUE: CLK_SysTickDelay:u32TimeOutCnt <- [DW_OP_constu 2, DW_OP_minus, DW_OP_stack_value] $r4
	@DEBUG_VALUE: CLK_SysTickDelay:us <- 100000
	@DEBUG_VALUE: led_animasyon2:position <- 1
	@DEBUG_VALUE: CLK_SysTickDelay:u32TimeOutCnt <- [DW_OP_constu 2, DW_OP_minus, DW_OP_stack_value] $r4
	.loc	7 521 22                        @ ../../M031BSP/Library/StdDriver/inc\clk.h:521:22
	ldr	r0, [r2]
.Ltmp297:
	@DEBUG_VALUE: CLK_SysTickDelay:u32TimeOutCnt <- [DW_OP_constu 3, DW_OP_minus, DW_OP_stack_value] $r4
	.loc	7 521 5                         @ ../../M031BSP/Library/StdDriver/inc\clk.h:521:5
	tst	r0, r3
	bne	.LBB4_116
.Ltmp298:
@ %bb.114:                              @   in Loop: Header=BB4_109 Depth=1
	@DEBUG_VALUE: CLK_SysTickDelay:u32TimeOutCnt <- [DW_OP_constu 3, DW_OP_minus, DW_OP_stack_value] $r4
	@DEBUG_VALUE: CLK_SysTickDelay:us <- 100000
	@DEBUG_VALUE: led_animasyon2:position <- 1
	@DEBUG_VALUE: CLK_SysTickDelay:u32TimeOutCnt <- [DW_OP_LLVM_arg 0, DW_OP_consts 4, DW_OP_consts 18446744073709551614, DW_OP_LLVM_arg 0, DW_OP_mul, DW_OP_plus, DW_OP_minus, DW_OP_consts 4, DW_OP_div, DW_OP_consts 18446744073709551612, DW_OP_mul, DW_OP_consts 18446744073709551612, DW_OP_consts 2, DW_OP_LLVM_arg 0, DW_OP_mul, DW_OP_plus, DW_OP_plus, DW_OP_stack_value] undef
	.loc	7 0 5                           @ ../../M031BSP/Library/StdDriver/inc\clk.h:0:5
	rsbs	r5, r4, #0
	adcs	r5, r4
	.loc	7 521 22                        @ ../../M031BSP/Library/StdDriver/inc\clk.h:521:22
	ldr	r0, [r2]
	.loc	7 521 5                         @ ../../M031BSP/Library/StdDriver/inc\clk.h:521:5
	tst	r0, r3
	mov	r0, r1
	bne	.LBB4_108
.Ltmp299:
@ %bb.115:                              @   in Loop: Header=BB4_109 Depth=1
	@DEBUG_VALUE: CLK_SysTickDelay:us <- 100000
	@DEBUG_VALUE: led_animasyon2:position <- 1
	.loc	7 0 5                           @ ../../M031BSP/Library/StdDriver/inc\clk.h:0:5
	mov	r0, r5
	b	.LBB4_108
.Ltmp300:
.LBB4_116:
	@DEBUG_VALUE: CLK_SysTickDelay:us <- 100000
	@DEBUG_VALUE: led_animasyon2:position <- 1
	.loc	7 530 19 is_stmt 1              @ ../../M031BSP/Library/StdDriver/inc\clk.h:530:19
	ldr	r0, [sp, #8]                    @ 4-byte Reload
	str	r0, [r2]
.Ltmp301:
	.loc	2 181 1 epilogue_begin          @ ../main.c:181:1
	add	sp, #12
	pop	{r4, r5, r6, r7, pc}
.Ltmp302:
	.p2align	2
@ %bb.117:
	.loc	2 0 1 is_stmt 0                 @ ../main.c:0:1
__arm_cp.4_1:
	.long	CyclesPerUs
.Lcpi_end23:
	.size	__arm_cp.4_1, .Lcpi_end23-__arm_cp.4_1
__arm_cp.4_2:
	.long	100000                          @ 0x186a0
.Lcpi_end24:
	.size	__arm_cp.4_2, .Lcpi_end24-__arm_cp.4_2
__arm_cp.4_3:
	.long	SystemCoreClock
.Lcpi_end25:
	.size	__arm_cp.4_3, .Lcpi_end25-__arm_cp.4_3
.Lfunc_end4:
	.size	led_animasyon2, .Lfunc_end4-led_animasyon2
	.cfi_endproc
	.cantunwind
	.fnend
                                        @ -- End function
	.section	.text.led_animasyon3,"ax",%progbits
	.hidden	led_animasyon3                  @ -- Begin function led_animasyon3
	.globl	led_animasyon3
	.p2align	2
	.type	led_animasyon3,%function
	.code	16                              @ @led_animasyon3
	.thumb_func
led_animasyon3:
.Lfunc_begin5:
	.loc	2 183 0 is_stmt 1               @ ../main.c:183:0
	.fnstart
	.cfi_startproc
@ %bb.0:
	.save	{r4, r5, r6, r7, lr}
	push	{r4, r5, r6, r7, lr}
	.cfi_def_cfa_offset 20
	.cfi_offset lr, -4
	.cfi_offset r7, -8
	.cfi_offset r6, -12
	.cfi_offset r5, -16
	.cfi_offset r4, -20
	.pad	#12
	sub	sp, #12
	.cfi_def_cfa_offset 32
.Ltmp303:
	@DEBUG_VALUE: led_animasyon3:position <- 1
	ldr	r4, __arm_cp.5_0
	movs	r1, #1
.Ltmp304:
	@DEBUG_VALUE: led_write:mask <- 9
	.loc	2 35 7 prologue_end             @ ../main.c:35:7
	str	r1, [r4, #8]
	movs	r5, #0
	.loc	2 36 7                          @ ../main.c:36:7
	str	r5, [r4, #4]
	.loc	2 37 7                          @ ../main.c:37:7
	str	r5, [r4]
	.loc	2 38 7                          @ ../main.c:38:7
	str	r1, [r4, #32]
.Ltmp305:
	.loc	7 516 26                        @ ../../M031BSP/Library/StdDriver/inc\clk.h:516:26
	ldr	r0, __arm_cp.5_1
	ldr	r0, [r0]
	ldr	r2, __arm_cp.5_2
	.loc	7 516 24 is_stmt 0              @ ../../M031BSP/Library/StdDriver/inc\clk.h:516:24
	muls	r0, r2, r0
.Ltmp306:
	@DEBUG_VALUE: CLK_SysTickDelay:us <- 100000
	.loc	7 514 30 is_stmt 1              @ ../../M031BSP/Library/StdDriver/inc\clk.h:514:30
	ldr	r2, __arm_cp.5_3
	ldr	r3, [r2]
	ldr	r2, __arm_cp.5_4
	.loc	7 516 19                        @ ../../M031BSP/Library/StdDriver/inc\clk.h:516:19
	str	r0, [r2, #4]
	str	r5, [sp]                        @ 4-byte Spill
	.loc	7 517 19                        @ ../../M031BSP/Library/StdDriver/inc\clk.h:517:19
	str	r5, [r2, #8]
	movs	r0, #5
	str	r0, [sp, #8]                    @ 4-byte Spill
	.loc	7 518 19                        @ ../../M031BSP/Library/StdDriver/inc\clk.h:518:19
	str	r0, [r2]
	.loc	7 514 46                        @ ../../M031BSP/Library/StdDriver/inc\clk.h:514:46
	lsls	r0, r3, #1
.Ltmp307:
	@DEBUG_VALUE: CLK_SysTickDelay:u32TimeOutCnt <- $r0
	.loc	7 0 46 is_stmt 0                @ ../../M031BSP/Library/StdDriver/inc\clk.h:0:46
	movs	r3, #4
	str	r3, [sp, #4]                    @ 4-byte Spill
	.loc	7 521 5 is_stmt 1               @ ../../M031BSP/Library/StdDriver/inc\clk.h:521:5
	subs	r6, r3, r0
	lsls	r3, r1, #16
	b	.LBB5_2
.Ltmp308:
.LBB5_1:                                @   in Loop: Header=BB5_2 Depth=1
	@DEBUG_VALUE: CLK_SysTickDelay:us <- 100000
	@DEBUG_VALUE: led_animasyon3:position <- 1
	adds	r6, r6, #4
	cmp	r5, #1
	beq	.LBB5_9
.Ltmp309:
.LBB5_2:                                @ =>This Inner Loop Header: Depth=1
	@DEBUG_VALUE: CLK_SysTickDelay:us <- 100000
	@DEBUG_VALUE: led_animasyon3:position <- 1
	@DEBUG_VALUE: CLK_SysTickDelay:u32TimeOutCnt <- [DW_OP_LLVM_arg 0, DW_OP_consts 4, DW_OP_consts 18446744073709551614, DW_OP_LLVM_arg 0, DW_OP_mul, DW_OP_plus, DW_OP_minus, DW_OP_consts 4, DW_OP_div, DW_OP_consts 18446744073709551612, DW_OP_mul, DW_OP_consts 2, DW_OP_LLVM_arg 0, DW_OP_mul, DW_OP_plus, DW_OP_stack_value] undef
	.loc	7 521 22 is_stmt 0              @ ../../M031BSP/Library/StdDriver/inc\clk.h:521:22
	ldr	r0, [r2]
.Ltmp310:
	@DEBUG_VALUE: CLK_SysTickDelay:u32TimeOutCnt <- [DW_OP_constu 1, DW_OP_minus, DW_OP_stack_value] $r6
	.loc	7 521 5                         @ ../../M031BSP/Library/StdDriver/inc\clk.h:521:5
	tst	r0, r3
	bne	.LBB5_9
.Ltmp311:
@ %bb.3:                                @   in Loop: Header=BB5_2 Depth=1
	@DEBUG_VALUE: CLK_SysTickDelay:u32TimeOutCnt <- [DW_OP_constu 1, DW_OP_minus, DW_OP_stack_value] $r6
	@DEBUG_VALUE: CLK_SysTickDelay:us <- 100000
	@DEBUG_VALUE: led_animasyon3:position <- 1
	@DEBUG_VALUE: CLK_SysTickDelay:u32TimeOutCnt <- [DW_OP_constu 2, DW_OP_minus, DW_OP_stack_value] $r6
	.loc	7 0 5                           @ ../../M031BSP/Library/StdDriver/inc\clk.h:0:5
	subs	r0, r6, #2
	rsbs	r7, r0, #0
	adcs	r7, r0
	.loc	7 521 22                        @ ../../M031BSP/Library/StdDriver/inc\clk.h:521:22
	ldr	r0, [r2]
	.loc	7 521 5                         @ ../../M031BSP/Library/StdDriver/inc\clk.h:521:5
	tst	r0, r3
	mov	r0, r1
	bne	.LBB5_5
.Ltmp312:
@ %bb.4:                                @   in Loop: Header=BB5_2 Depth=1
	@DEBUG_VALUE: CLK_SysTickDelay:u32TimeOutCnt <- [DW_OP_constu 2, DW_OP_minus, DW_OP_stack_value] $r6
	@DEBUG_VALUE: CLK_SysTickDelay:us <- 100000
	@DEBUG_VALUE: led_animasyon3:position <- 1
	.loc	7 0 5                           @ ../../M031BSP/Library/StdDriver/inc\clk.h:0:5
	mov	r0, r7
.Ltmp313:
.LBB5_5:                                @   in Loop: Header=BB5_2 Depth=1
	@DEBUG_VALUE: CLK_SysTickDelay:u32TimeOutCnt <- [DW_OP_constu 2, DW_OP_minus, DW_OP_stack_value] $r6
	@DEBUG_VALUE: CLK_SysTickDelay:us <- 100000
	@DEBUG_VALUE: led_animasyon3:position <- 1
	.loc	7 521 5                         @ ../../M031BSP/Library/StdDriver/inc\clk.h:521:5
	cmp	r0, #0
	bne	.LBB5_9
.Ltmp314:
@ %bb.6:                                @   in Loop: Header=BB5_2 Depth=1
	@DEBUG_VALUE: CLK_SysTickDelay:u32TimeOutCnt <- [DW_OP_constu 2, DW_OP_minus, DW_OP_stack_value] $r6
	@DEBUG_VALUE: CLK_SysTickDelay:us <- 100000
	@DEBUG_VALUE: led_animasyon3:position <- 1
	@DEBUG_VALUE: CLK_SysTickDelay:u32TimeOutCnt <- [DW_OP_constu 2, DW_OP_minus, DW_OP_stack_value] $r6
	.loc	7 521 22                        @ ../../M031BSP/Library/StdDriver/inc\clk.h:521:22
	ldr	r0, [r2]
.Ltmp315:
	@DEBUG_VALUE: CLK_SysTickDelay:u32TimeOutCnt <- [DW_OP_constu 3, DW_OP_minus, DW_OP_stack_value] $r6
	.loc	7 521 5                         @ ../../M031BSP/Library/StdDriver/inc\clk.h:521:5
	tst	r0, r3
	bne	.LBB5_9
.Ltmp316:
@ %bb.7:                                @   in Loop: Header=BB5_2 Depth=1
	@DEBUG_VALUE: CLK_SysTickDelay:u32TimeOutCnt <- [DW_OP_constu 3, DW_OP_minus, DW_OP_stack_value] $r6
	@DEBUG_VALUE: CLK_SysTickDelay:us <- 100000
	@DEBUG_VALUE: led_animasyon3:position <- 1
	@DEBUG_VALUE: CLK_SysTickDelay:u32TimeOutCnt <- [DW_OP_LLVM_arg 0, DW_OP_consts 4, DW_OP_consts 18446744073709551614, DW_OP_LLVM_arg 0, DW_OP_mul, DW_OP_plus, DW_OP_minus, DW_OP_consts 4, DW_OP_div, DW_OP_consts 18446744073709551612, DW_OP_mul, DW_OP_consts 18446744073709551612, DW_OP_consts 2, DW_OP_LLVM_arg 0, DW_OP_mul, DW_OP_plus, DW_OP_plus, DW_OP_stack_value] undef
	.loc	7 0 5                           @ ../../M031BSP/Library/StdDriver/inc\clk.h:0:5
	rsbs	r7, r6, #0
	adcs	r7, r6
	.loc	7 521 22                        @ ../../M031BSP/Library/StdDriver/inc\clk.h:521:22
	ldr	r0, [r2]
	.loc	7 521 5                         @ ../../M031BSP/Library/StdDriver/inc\clk.h:521:5
	tst	r0, r3
	mov	r5, r1
	bne	.LBB5_1
.Ltmp317:
@ %bb.8:                                @   in Loop: Header=BB5_2 Depth=1
	@DEBUG_VALUE: CLK_SysTickDelay:us <- 100000
	@DEBUG_VALUE: led_animasyon3:position <- 1
	.loc	7 0 5                           @ ../../M031BSP/Library/StdDriver/inc\clk.h:0:5
	mov	r5, r7
	b	.LBB5_1
.Ltmp318:
.LBB5_9:
	@DEBUG_VALUE: CLK_SysTickDelay:us <- 100000
	@DEBUG_VALUE: led_animasyon3:position <- 1
	ldr	r7, [sp]                        @ 4-byte Reload
	.loc	7 530 19 is_stmt 1              @ ../../M031BSP/Library/StdDriver/inc\clk.h:530:19
	str	r7, [r2]
	movs	r6, #1
.Ltmp319:
	@DEBUG_VALUE: led_write:mask <- 15
	.loc	2 35 7                          @ ../main.c:35:7
	str	r6, [r4, #8]
	.loc	2 36 7                          @ ../main.c:36:7
	str	r6, [r4, #4]
	.loc	2 37 7                          @ ../main.c:37:7
	str	r6, [r4]
	.loc	2 38 7                          @ ../main.c:38:7
	str	r6, [r4, #32]
.Ltmp320:
	.loc	7 516 26                        @ ../../M031BSP/Library/StdDriver/inc\clk.h:516:26
	ldr	r0, __arm_cp.5_1
	ldr	r0, [r0]
	.loc	7 516 24 is_stmt 0              @ ../../M031BSP/Library/StdDriver/inc\clk.h:516:24
	ldr	r5, __arm_cp.5_2
	muls	r0, r5, r0
.Ltmp321:
	@DEBUG_VALUE: CLK_SysTickDelay:us <- 100000
	.loc	7 514 30 is_stmt 1              @ ../../M031BSP/Library/StdDriver/inc\clk.h:514:30
	ldr	r5, __arm_cp.5_3
	ldr	r5, [r5]
	.loc	7 516 19                        @ ../../M031BSP/Library/StdDriver/inc\clk.h:516:19
	str	r0, [r2, #4]
	.loc	7 517 19                        @ ../../M031BSP/Library/StdDriver/inc\clk.h:517:19
	str	r7, [r2, #8]
	.loc	7 518 19                        @ ../../M031BSP/Library/StdDriver/inc\clk.h:518:19
	ldr	r0, [sp, #8]                    @ 4-byte Reload
	str	r0, [r2]
	.loc	7 514 46                        @ ../../M031BSP/Library/StdDriver/inc\clk.h:514:46
	lsls	r0, r5, #1
.Ltmp322:
	@DEBUG_VALUE: CLK_SysTickDelay:u32TimeOutCnt <- $r0
	.loc	7 521 5                         @ ../../M031BSP/Library/StdDriver/inc\clk.h:521:5
	ldr	r5, [sp, #4]                    @ 4-byte Reload
	subs	r7, r5, r0
	b	.LBB5_11
.Ltmp323:
.LBB5_10:                               @   in Loop: Header=BB5_11 Depth=1
	@DEBUG_VALUE: CLK_SysTickDelay:us <- 100000
	@DEBUG_VALUE: led_animasyon3:position <- 1
	adds	r7, r7, #4
	cmp	r0, #1
	beq	.LBB5_18
.Ltmp324:
.LBB5_11:                               @ =>This Inner Loop Header: Depth=1
	@DEBUG_VALUE: CLK_SysTickDelay:us <- 100000
	@DEBUG_VALUE: led_animasyon3:position <- 1
	@DEBUG_VALUE: CLK_SysTickDelay:u32TimeOutCnt <- [DW_OP_LLVM_arg 0, DW_OP_consts 4, DW_OP_consts 18446744073709551614, DW_OP_LLVM_arg 0, DW_OP_mul, DW_OP_plus, DW_OP_minus, DW_OP_consts 4, DW_OP_div, DW_OP_consts 18446744073709551612, DW_OP_mul, DW_OP_consts 2, DW_OP_LLVM_arg 0, DW_OP_mul, DW_OP_plus, DW_OP_stack_value] undef
	.loc	7 521 22 is_stmt 0              @ ../../M031BSP/Library/StdDriver/inc\clk.h:521:22
	ldr	r0, [r2]
.Ltmp325:
	@DEBUG_VALUE: CLK_SysTickDelay:u32TimeOutCnt <- [DW_OP_constu 1, DW_OP_minus, DW_OP_stack_value] $r7
	.loc	7 521 5                         @ ../../M031BSP/Library/StdDriver/inc\clk.h:521:5
	tst	r0, r3
	bne	.LBB5_18
.Ltmp326:
@ %bb.12:                               @   in Loop: Header=BB5_11 Depth=1
	@DEBUG_VALUE: CLK_SysTickDelay:u32TimeOutCnt <- [DW_OP_constu 1, DW_OP_minus, DW_OP_stack_value] $r7
	@DEBUG_VALUE: CLK_SysTickDelay:us <- 100000
	@DEBUG_VALUE: led_animasyon3:position <- 1
	@DEBUG_VALUE: CLK_SysTickDelay:u32TimeOutCnt <- [DW_OP_constu 2, DW_OP_minus, DW_OP_stack_value] $r7
	.loc	7 0 5                           @ ../../M031BSP/Library/StdDriver/inc\clk.h:0:5
	subs	r0, r7, #2
	rsbs	r5, r0, #0
	adcs	r5, r0
	.loc	7 521 22                        @ ../../M031BSP/Library/StdDriver/inc\clk.h:521:22
	ldr	r0, [r2]
	.loc	7 521 5                         @ ../../M031BSP/Library/StdDriver/inc\clk.h:521:5
	tst	r0, r3
	mov	r0, r1
	bne	.LBB5_14
.Ltmp327:
@ %bb.13:                               @   in Loop: Header=BB5_11 Depth=1
	@DEBUG_VALUE: CLK_SysTickDelay:u32TimeOutCnt <- [DW_OP_constu 2, DW_OP_minus, DW_OP_stack_value] $r7
	@DEBUG_VALUE: CLK_SysTickDelay:us <- 100000
	@DEBUG_VALUE: led_animasyon3:position <- 1
	.loc	7 0 5                           @ ../../M031BSP/Library/StdDriver/inc\clk.h:0:5
	mov	r0, r5
.Ltmp328:
.LBB5_14:                               @   in Loop: Header=BB5_11 Depth=1
	@DEBUG_VALUE: CLK_SysTickDelay:u32TimeOutCnt <- [DW_OP_constu 2, DW_OP_minus, DW_OP_stack_value] $r7
	@DEBUG_VALUE: CLK_SysTickDelay:us <- 100000
	@DEBUG_VALUE: led_animasyon3:position <- 1
	.loc	7 521 5                         @ ../../M031BSP/Library/StdDriver/inc\clk.h:521:5
	cmp	r0, #0
	bne	.LBB5_18
.Ltmp329:
@ %bb.15:                               @   in Loop: Header=BB5_11 Depth=1
	@DEBUG_VALUE: CLK_SysTickDelay:u32TimeOutCnt <- [DW_OP_constu 2, DW_OP_minus, DW_OP_stack_value] $r7
	@DEBUG_VALUE: CLK_SysTickDelay:us <- 100000
	@DEBUG_VALUE: led_animasyon3:position <- 1
	@DEBUG_VALUE: CLK_SysTickDelay:u32TimeOutCnt <- [DW_OP_constu 2, DW_OP_minus, DW_OP_stack_value] $r7
	.loc	7 521 22                        @ ../../M031BSP/Library/StdDriver/inc\clk.h:521:22
	ldr	r0, [r2]
.Ltmp330:
	@DEBUG_VALUE: CLK_SysTickDelay:u32TimeOutCnt <- [DW_OP_constu 3, DW_OP_minus, DW_OP_stack_value] $r7
	.loc	7 521 5                         @ ../../M031BSP/Library/StdDriver/inc\clk.h:521:5
	tst	r0, r3
	bne	.LBB5_18
.Ltmp331:
@ %bb.16:                               @   in Loop: Header=BB5_11 Depth=1
	@DEBUG_VALUE: CLK_SysTickDelay:u32TimeOutCnt <- [DW_OP_constu 3, DW_OP_minus, DW_OP_stack_value] $r7
	@DEBUG_VALUE: CLK_SysTickDelay:us <- 100000
	@DEBUG_VALUE: led_animasyon3:position <- 1
	@DEBUG_VALUE: CLK_SysTickDelay:u32TimeOutCnt <- [DW_OP_LLVM_arg 0, DW_OP_consts 4, DW_OP_consts 18446744073709551614, DW_OP_LLVM_arg 0, DW_OP_mul, DW_OP_plus, DW_OP_minus, DW_OP_consts 4, DW_OP_div, DW_OP_consts 18446744073709551612, DW_OP_mul, DW_OP_consts 18446744073709551612, DW_OP_consts 2, DW_OP_LLVM_arg 0, DW_OP_mul, DW_OP_plus, DW_OP_plus, DW_OP_stack_value] undef
	.loc	7 0 5                           @ ../../M031BSP/Library/StdDriver/inc\clk.h:0:5
	rsbs	r5, r7, #0
	adcs	r5, r7
	.loc	7 521 22                        @ ../../M031BSP/Library/StdDriver/inc\clk.h:521:22
	ldr	r0, [r2]
	.loc	7 521 5                         @ ../../M031BSP/Library/StdDriver/inc\clk.h:521:5
	tst	r0, r3
	mov	r0, r1
	bne	.LBB5_10
.Ltmp332:
@ %bb.17:                               @   in Loop: Header=BB5_11 Depth=1
	@DEBUG_VALUE: CLK_SysTickDelay:us <- 100000
	@DEBUG_VALUE: led_animasyon3:position <- 1
	.loc	7 0 5                           @ ../../M031BSP/Library/StdDriver/inc\clk.h:0:5
	mov	r0, r5
	b	.LBB5_10
.Ltmp333:
.LBB5_18:
	@DEBUG_VALUE: CLK_SysTickDelay:us <- 100000
	@DEBUG_VALUE: led_animasyon3:position <- 1
	ldr	r7, [sp]                        @ 4-byte Reload
	.loc	7 530 19 is_stmt 1              @ ../../M031BSP/Library/StdDriver/inc\clk.h:530:19
	str	r7, [r2]
.Ltmp334:
	@DEBUG_VALUE: led_write:mask <- 9
	.loc	2 35 7                          @ ../main.c:35:7
	str	r6, [r4, #8]
	.loc	2 36 7                          @ ../main.c:36:7
	str	r7, [r4, #4]
	.loc	2 37 7                          @ ../main.c:37:7
	str	r7, [r4]
	.loc	2 38 7                          @ ../main.c:38:7
	str	r6, [r4, #32]
.Ltmp335:
	.loc	7 516 26                        @ ../../M031BSP/Library/StdDriver/inc\clk.h:516:26
	ldr	r0, __arm_cp.5_1
	ldr	r0, [r0]
	.loc	7 516 24 is_stmt 0              @ ../../M031BSP/Library/StdDriver/inc\clk.h:516:24
	ldr	r5, __arm_cp.5_2
	muls	r0, r5, r0
.Ltmp336:
	@DEBUG_VALUE: CLK_SysTickDelay:us <- 100000
	.loc	7 514 30 is_stmt 1              @ ../../M031BSP/Library/StdDriver/inc\clk.h:514:30
	ldr	r5, __arm_cp.5_3
	ldr	r5, [r5]
	.loc	7 516 19                        @ ../../M031BSP/Library/StdDriver/inc\clk.h:516:19
	str	r0, [r2, #4]
	.loc	7 517 19                        @ ../../M031BSP/Library/StdDriver/inc\clk.h:517:19
	str	r7, [r2, #8]
	.loc	7 518 19                        @ ../../M031BSP/Library/StdDriver/inc\clk.h:518:19
	ldr	r0, [sp, #8]                    @ 4-byte Reload
	str	r0, [r2]
	.loc	7 514 46                        @ ../../M031BSP/Library/StdDriver/inc\clk.h:514:46
	lsls	r0, r5, #1
.Ltmp337:
	@DEBUG_VALUE: CLK_SysTickDelay:u32TimeOutCnt <- $r0
	.loc	7 521 5                         @ ../../M031BSP/Library/StdDriver/inc\clk.h:521:5
	ldr	r5, [sp, #4]                    @ 4-byte Reload
	subs	r6, r5, r0
	b	.LBB5_20
.Ltmp338:
.LBB5_19:                               @   in Loop: Header=BB5_20 Depth=1
	@DEBUG_VALUE: CLK_SysTickDelay:us <- 100000
	@DEBUG_VALUE: led_animasyon3:position <- 1
	adds	r6, r6, #4
	cmp	r0, #1
	beq	.LBB5_27
.Ltmp339:
.LBB5_20:                               @ =>This Inner Loop Header: Depth=1
	@DEBUG_VALUE: CLK_SysTickDelay:us <- 100000
	@DEBUG_VALUE: led_animasyon3:position <- 1
	@DEBUG_VALUE: CLK_SysTickDelay:u32TimeOutCnt <- [DW_OP_LLVM_arg 0, DW_OP_consts 4, DW_OP_consts 18446744073709551614, DW_OP_LLVM_arg 0, DW_OP_mul, DW_OP_plus, DW_OP_minus, DW_OP_consts 4, DW_OP_div, DW_OP_consts 18446744073709551612, DW_OP_mul, DW_OP_consts 2, DW_OP_LLVM_arg 0, DW_OP_mul, DW_OP_plus, DW_OP_stack_value] undef
	.loc	7 521 22 is_stmt 0              @ ../../M031BSP/Library/StdDriver/inc\clk.h:521:22
	ldr	r0, [r2]
.Ltmp340:
	@DEBUG_VALUE: CLK_SysTickDelay:u32TimeOutCnt <- [DW_OP_constu 1, DW_OP_minus, DW_OP_stack_value] $r6
	.loc	7 521 5                         @ ../../M031BSP/Library/StdDriver/inc\clk.h:521:5
	tst	r0, r3
	bne	.LBB5_27
.Ltmp341:
@ %bb.21:                               @   in Loop: Header=BB5_20 Depth=1
	@DEBUG_VALUE: CLK_SysTickDelay:u32TimeOutCnt <- [DW_OP_constu 1, DW_OP_minus, DW_OP_stack_value] $r6
	@DEBUG_VALUE: CLK_SysTickDelay:us <- 100000
	@DEBUG_VALUE: led_animasyon3:position <- 1
	@DEBUG_VALUE: CLK_SysTickDelay:u32TimeOutCnt <- [DW_OP_constu 2, DW_OP_minus, DW_OP_stack_value] $r6
	.loc	7 0 5                           @ ../../M031BSP/Library/StdDriver/inc\clk.h:0:5
	subs	r0, r6, #2
	rsbs	r5, r0, #0
	adcs	r5, r0
	.loc	7 521 22                        @ ../../M031BSP/Library/StdDriver/inc\clk.h:521:22
	ldr	r0, [r2]
	.loc	7 521 5                         @ ../../M031BSP/Library/StdDriver/inc\clk.h:521:5
	tst	r0, r3
	mov	r0, r1
	bne	.LBB5_23
.Ltmp342:
@ %bb.22:                               @   in Loop: Header=BB5_20 Depth=1
	@DEBUG_VALUE: CLK_SysTickDelay:u32TimeOutCnt <- [DW_OP_constu 2, DW_OP_minus, DW_OP_stack_value] $r6
	@DEBUG_VALUE: CLK_SysTickDelay:us <- 100000
	@DEBUG_VALUE: led_animasyon3:position <- 1
	.loc	7 0 5                           @ ../../M031BSP/Library/StdDriver/inc\clk.h:0:5
	mov	r0, r5
.Ltmp343:
.LBB5_23:                               @   in Loop: Header=BB5_20 Depth=1
	@DEBUG_VALUE: CLK_SysTickDelay:u32TimeOutCnt <- [DW_OP_constu 2, DW_OP_minus, DW_OP_stack_value] $r6
	@DEBUG_VALUE: CLK_SysTickDelay:us <- 100000
	@DEBUG_VALUE: led_animasyon3:position <- 1
	.loc	7 521 5                         @ ../../M031BSP/Library/StdDriver/inc\clk.h:521:5
	cmp	r0, #0
	bne	.LBB5_27
.Ltmp344:
@ %bb.24:                               @   in Loop: Header=BB5_20 Depth=1
	@DEBUG_VALUE: CLK_SysTickDelay:u32TimeOutCnt <- [DW_OP_constu 2, DW_OP_minus, DW_OP_stack_value] $r6
	@DEBUG_VALUE: CLK_SysTickDelay:us <- 100000
	@DEBUG_VALUE: led_animasyon3:position <- 1
	@DEBUG_VALUE: CLK_SysTickDelay:u32TimeOutCnt <- [DW_OP_constu 2, DW_OP_minus, DW_OP_stack_value] $r6
	.loc	7 521 22                        @ ../../M031BSP/Library/StdDriver/inc\clk.h:521:22
	ldr	r0, [r2]
.Ltmp345:
	@DEBUG_VALUE: CLK_SysTickDelay:u32TimeOutCnt <- [DW_OP_constu 3, DW_OP_minus, DW_OP_stack_value] $r6
	.loc	7 521 5                         @ ../../M031BSP/Library/StdDriver/inc\clk.h:521:5
	tst	r0, r3
	bne	.LBB5_27
.Ltmp346:
@ %bb.25:                               @   in Loop: Header=BB5_20 Depth=1
	@DEBUG_VALUE: CLK_SysTickDelay:u32TimeOutCnt <- [DW_OP_constu 3, DW_OP_minus, DW_OP_stack_value] $r6
	@DEBUG_VALUE: CLK_SysTickDelay:us <- 100000
	@DEBUG_VALUE: led_animasyon3:position <- 1
	@DEBUG_VALUE: CLK_SysTickDelay:u32TimeOutCnt <- [DW_OP_LLVM_arg 0, DW_OP_consts 4, DW_OP_consts 18446744073709551614, DW_OP_LLVM_arg 0, DW_OP_mul, DW_OP_plus, DW_OP_minus, DW_OP_consts 4, DW_OP_div, DW_OP_consts 18446744073709551612, DW_OP_mul, DW_OP_consts 18446744073709551612, DW_OP_consts 2, DW_OP_LLVM_arg 0, DW_OP_mul, DW_OP_plus, DW_OP_plus, DW_OP_stack_value] undef
	.loc	7 0 5                           @ ../../M031BSP/Library/StdDriver/inc\clk.h:0:5
	rsbs	r5, r6, #0
	adcs	r5, r6
	.loc	7 521 22                        @ ../../M031BSP/Library/StdDriver/inc\clk.h:521:22
	ldr	r0, [r2]
	.loc	7 521 5                         @ ../../M031BSP/Library/StdDriver/inc\clk.h:521:5
	tst	r0, r3
	mov	r0, r1
	bne	.LBB5_19
.Ltmp347:
@ %bb.26:                               @   in Loop: Header=BB5_20 Depth=1
	@DEBUG_VALUE: CLK_SysTickDelay:us <- 100000
	@DEBUG_VALUE: led_animasyon3:position <- 1
	.loc	7 0 5                           @ ../../M031BSP/Library/StdDriver/inc\clk.h:0:5
	mov	r0, r5
	b	.LBB5_19
.Ltmp348:
.LBB5_27:
	@DEBUG_VALUE: CLK_SysTickDelay:us <- 100000
	@DEBUG_VALUE: led_animasyon3:position <- 1
	.loc	7 530 19 is_stmt 1              @ ../../M031BSP/Library/StdDriver/inc\clk.h:530:19
	str	r7, [r2]
.Ltmp349:
	@DEBUG_VALUE: led_write:mask <- 0
	.loc	2 35 7                          @ ../main.c:35:7
	str	r7, [r4, #8]
	.loc	2 36 7                          @ ../main.c:36:7
	str	r7, [r4, #4]
	.loc	2 37 7                          @ ../main.c:37:7
	str	r7, [r4]
	.loc	2 38 7                          @ ../main.c:38:7
	str	r7, [r4, #32]
.Ltmp350:
	.loc	7 516 26                        @ ../../M031BSP/Library/StdDriver/inc\clk.h:516:26
	ldr	r0, __arm_cp.5_1
	ldr	r0, [r0]
	ldr	r4, __arm_cp.5_2
	.loc	7 516 24 is_stmt 0              @ ../../M031BSP/Library/StdDriver/inc\clk.h:516:24
	muls	r4, r0, r4
.Ltmp351:
	@DEBUG_VALUE: CLK_SysTickDelay:us <- 100000
	.loc	7 514 30 is_stmt 1              @ ../../M031BSP/Library/StdDriver/inc\clk.h:514:30
	ldr	r0, __arm_cp.5_3
	ldr	r0, [r0]
	.loc	7 516 19                        @ ../../M031BSP/Library/StdDriver/inc\clk.h:516:19
	str	r4, [r2, #4]
	.loc	7 517 19                        @ ../../M031BSP/Library/StdDriver/inc\clk.h:517:19
	str	r7, [r2, #8]
	.loc	7 518 19                        @ ../../M031BSP/Library/StdDriver/inc\clk.h:518:19
	ldr	r4, [sp, #8]                    @ 4-byte Reload
	str	r4, [r2]
	.loc	7 514 46                        @ ../../M031BSP/Library/StdDriver/inc\clk.h:514:46
	lsls	r0, r0, #1
.Ltmp352:
	@DEBUG_VALUE: CLK_SysTickDelay:u32TimeOutCnt <- $r0
	.loc	7 521 5                         @ ../../M031BSP/Library/StdDriver/inc\clk.h:521:5
	ldr	r4, [sp, #4]                    @ 4-byte Reload
	subs	r4, r4, r0
	b	.LBB5_29
.Ltmp353:
.LBB5_28:                               @   in Loop: Header=BB5_29 Depth=1
	@DEBUG_VALUE: CLK_SysTickDelay:us <- 100000
	@DEBUG_VALUE: led_animasyon3:position <- 1
	adds	r4, r4, #4
	cmp	r0, #1
	beq	.LBB5_36
.Ltmp354:
.LBB5_29:                               @ =>This Inner Loop Header: Depth=1
	@DEBUG_VALUE: CLK_SysTickDelay:us <- 100000
	@DEBUG_VALUE: led_animasyon3:position <- 1
	@DEBUG_VALUE: CLK_SysTickDelay:u32TimeOutCnt <- [DW_OP_LLVM_arg 0, DW_OP_consts 4, DW_OP_consts 18446744073709551614, DW_OP_LLVM_arg 0, DW_OP_mul, DW_OP_plus, DW_OP_minus, DW_OP_consts 4, DW_OP_div, DW_OP_consts 18446744073709551612, DW_OP_mul, DW_OP_consts 2, DW_OP_LLVM_arg 0, DW_OP_mul, DW_OP_plus, DW_OP_stack_value] undef
	.loc	7 521 22 is_stmt 0              @ ../../M031BSP/Library/StdDriver/inc\clk.h:521:22
	ldr	r0, [r2]
.Ltmp355:
	@DEBUG_VALUE: CLK_SysTickDelay:u32TimeOutCnt <- [DW_OP_constu 1, DW_OP_minus, DW_OP_stack_value] $r4
	.loc	7 521 5                         @ ../../M031BSP/Library/StdDriver/inc\clk.h:521:5
	tst	r0, r3
	bne	.LBB5_36
.Ltmp356:
@ %bb.30:                               @   in Loop: Header=BB5_29 Depth=1
	@DEBUG_VALUE: CLK_SysTickDelay:u32TimeOutCnt <- [DW_OP_constu 1, DW_OP_minus, DW_OP_stack_value] $r4
	@DEBUG_VALUE: CLK_SysTickDelay:us <- 100000
	@DEBUG_VALUE: led_animasyon3:position <- 1
	@DEBUG_VALUE: CLK_SysTickDelay:u32TimeOutCnt <- [DW_OP_constu 2, DW_OP_minus, DW_OP_stack_value] $r4
	.loc	7 0 5                           @ ../../M031BSP/Library/StdDriver/inc\clk.h:0:5
	subs	r0, r4, #2
	rsbs	r5, r0, #0
	adcs	r5, r0
	.loc	7 521 22                        @ ../../M031BSP/Library/StdDriver/inc\clk.h:521:22
	ldr	r0, [r2]
	.loc	7 521 5                         @ ../../M031BSP/Library/StdDriver/inc\clk.h:521:5
	tst	r0, r3
	mov	r0, r1
	bne	.LBB5_32
.Ltmp357:
@ %bb.31:                               @   in Loop: Header=BB5_29 Depth=1
	@DEBUG_VALUE: CLK_SysTickDelay:u32TimeOutCnt <- [DW_OP_constu 2, DW_OP_minus, DW_OP_stack_value] $r4
	@DEBUG_VALUE: CLK_SysTickDelay:us <- 100000
	@DEBUG_VALUE: led_animasyon3:position <- 1
	.loc	7 0 5                           @ ../../M031BSP/Library/StdDriver/inc\clk.h:0:5
	mov	r0, r5
.Ltmp358:
.LBB5_32:                               @   in Loop: Header=BB5_29 Depth=1
	@DEBUG_VALUE: CLK_SysTickDelay:u32TimeOutCnt <- [DW_OP_constu 2, DW_OP_minus, DW_OP_stack_value] $r4
	@DEBUG_VALUE: CLK_SysTickDelay:us <- 100000
	@DEBUG_VALUE: led_animasyon3:position <- 1
	.loc	7 521 5                         @ ../../M031BSP/Library/StdDriver/inc\clk.h:521:5
	cmp	r0, #0
	bne	.LBB5_36
.Ltmp359:
@ %bb.33:                               @   in Loop: Header=BB5_29 Depth=1
	@DEBUG_VALUE: CLK_SysTickDelay:u32TimeOutCnt <- [DW_OP_constu 2, DW_OP_minus, DW_OP_stack_value] $r4
	@DEBUG_VALUE: CLK_SysTickDelay:us <- 100000
	@DEBUG_VALUE: led_animasyon3:position <- 1
	@DEBUG_VALUE: CLK_SysTickDelay:u32TimeOutCnt <- [DW_OP_constu 2, DW_OP_minus, DW_OP_stack_value] $r4
	.loc	7 521 22                        @ ../../M031BSP/Library/StdDriver/inc\clk.h:521:22
	ldr	r0, [r2]
.Ltmp360:
	@DEBUG_VALUE: CLK_SysTickDelay:u32TimeOutCnt <- [DW_OP_constu 3, DW_OP_minus, DW_OP_stack_value] $r4
	.loc	7 521 5                         @ ../../M031BSP/Library/StdDriver/inc\clk.h:521:5
	tst	r0, r3
	bne	.LBB5_36
.Ltmp361:
@ %bb.34:                               @   in Loop: Header=BB5_29 Depth=1
	@DEBUG_VALUE: CLK_SysTickDelay:u32TimeOutCnt <- [DW_OP_constu 3, DW_OP_minus, DW_OP_stack_value] $r4
	@DEBUG_VALUE: CLK_SysTickDelay:us <- 100000
	@DEBUG_VALUE: led_animasyon3:position <- 1
	@DEBUG_VALUE: CLK_SysTickDelay:u32TimeOutCnt <- [DW_OP_LLVM_arg 0, DW_OP_consts 4, DW_OP_consts 18446744073709551614, DW_OP_LLVM_arg 0, DW_OP_mul, DW_OP_plus, DW_OP_minus, DW_OP_consts 4, DW_OP_div, DW_OP_consts 18446744073709551612, DW_OP_mul, DW_OP_consts 18446744073709551612, DW_OP_consts 2, DW_OP_LLVM_arg 0, DW_OP_mul, DW_OP_plus, DW_OP_plus, DW_OP_stack_value] undef
	.loc	7 0 5                           @ ../../M031BSP/Library/StdDriver/inc\clk.h:0:5
	rsbs	r5, r4, #0
	adcs	r5, r4
	.loc	7 521 22                        @ ../../M031BSP/Library/StdDriver/inc\clk.h:521:22
	ldr	r0, [r2]
	.loc	7 521 5                         @ ../../M031BSP/Library/StdDriver/inc\clk.h:521:5
	tst	r0, r3
	mov	r0, r1
	bne	.LBB5_28
.Ltmp362:
@ %bb.35:                               @   in Loop: Header=BB5_29 Depth=1
	@DEBUG_VALUE: CLK_SysTickDelay:us <- 100000
	@DEBUG_VALUE: led_animasyon3:position <- 1
	.loc	7 0 5                           @ ../../M031BSP/Library/StdDriver/inc\clk.h:0:5
	mov	r0, r5
	b	.LBB5_28
.Ltmp363:
.LBB5_36:
	@DEBUG_VALUE: CLK_SysTickDelay:us <- 100000
	@DEBUG_VALUE: led_animasyon3:position <- 1
	.loc	7 530 19 is_stmt 1              @ ../../M031BSP/Library/StdDriver/inc\clk.h:530:19
	str	r7, [r2]
.Ltmp364:
	.loc	2 193 1 epilogue_begin          @ ../main.c:193:1
	add	sp, #12
	pop	{r4, r5, r6, r7, pc}
.Ltmp365:
	.p2align	2
@ %bb.37:
	.loc	2 0 1 is_stmt 0                 @ ../main.c:0:1
__arm_cp.5_0:
	.long	1073760600                      @ 0x40004958
.Lcpi_end26:
	.size	__arm_cp.5_0, .Lcpi_end26-__arm_cp.5_0
__arm_cp.5_1:
	.long	CyclesPerUs
.Lcpi_end27:
	.size	__arm_cp.5_1, .Lcpi_end27-__arm_cp.5_1
__arm_cp.5_2:
	.long	100000                          @ 0x186a0
.Lcpi_end28:
	.size	__arm_cp.5_2, .Lcpi_end28-__arm_cp.5_2
__arm_cp.5_3:
	.long	SystemCoreClock
.Lcpi_end29:
	.size	__arm_cp.5_3, .Lcpi_end29-__arm_cp.5_3
__arm_cp.5_4:
	.long	3758153744                      @ 0xe000e010
.Lcpi_end30:
	.size	__arm_cp.5_4, .Lcpi_end30-__arm_cp.5_4
.Lfunc_end5:
	.size	led_animasyon3, .Lfunc_end5-led_animasyon3
	.cfi_endproc
	.cantunwind
	.fnend
                                        @ -- End function
	.section	.text.led_animasyon4,"ax",%progbits
	.hidden	led_animasyon4                  @ -- Begin function led_animasyon4
	.globl	led_animasyon4
	.p2align	2
	.type	led_animasyon4,%function
	.code	16                              @ @led_animasyon4
	.thumb_func
led_animasyon4:
.Lfunc_begin6:
	.loc	2 195 0 is_stmt 1               @ ../main.c:195:0
	.fnstart
	.cfi_startproc
@ %bb.0:
	.save	{r4, r5, r6, r7, lr}
	push	{r4, r5, r6, r7, lr}
	.cfi_def_cfa_offset 20
	.cfi_offset lr, -4
	.cfi_offset r7, -8
	.cfi_offset r6, -12
	.cfi_offset r5, -16
	.cfi_offset r4, -20
	.pad	#16
	sub	sp, #16
	.cfi_def_cfa_offset 36
.Ltmp366:
	@DEBUG_VALUE: led_animasyon4:position <- 1
	@DEBUG_VALUE: i <- 0
	ldr	r4, __arm_cp.6_0
	movs	r1, #1
.Ltmp367:
	@DEBUG_VALUE: led_write:mask <- 1
	.loc	2 35 7 prologue_end             @ ../main.c:35:7
	str	r1, [r4, #8]
	movs	r6, #0
	.loc	2 36 7                          @ ../main.c:36:7
	str	r6, [r4, #4]
	.loc	2 37 7                          @ ../main.c:37:7
	str	r6, [r4]
	.loc	2 38 7                          @ ../main.c:38:7
	str	r6, [r4, #32]
.Ltmp368:
	.loc	7 516 26                        @ ../../M031BSP/Library/StdDriver/inc\clk.h:516:26
	ldr	r0, __arm_cp.6_1
	ldr	r0, [r0]
	ldr	r5, __arm_cp.6_2
	.loc	7 516 24 is_stmt 0              @ ../../M031BSP/Library/StdDriver/inc\clk.h:516:24
	muls	r0, r5, r0
.Ltmp369:
	@DEBUG_VALUE: CLK_SysTickDelay:us <- 100000
	.loc	7 514 30 is_stmt 1              @ ../../M031BSP/Library/StdDriver/inc\clk.h:514:30
	ldr	r2, __arm_cp.6_3
	ldr	r3, [r2]
	ldr	r2, __arm_cp.6_4
	.loc	7 516 19                        @ ../../M031BSP/Library/StdDriver/inc\clk.h:516:19
	str	r0, [r2, #4]
	str	r6, [sp, #12]                   @ 4-byte Spill
	.loc	7 517 19                        @ ../../M031BSP/Library/StdDriver/inc\clk.h:517:19
	str	r6, [r2, #8]
	movs	r0, #5
	str	r0, [sp, #8]                    @ 4-byte Spill
	.loc	7 518 19                        @ ../../M031BSP/Library/StdDriver/inc\clk.h:518:19
	str	r0, [r2]
	.loc	7 514 46                        @ ../../M031BSP/Library/StdDriver/inc\clk.h:514:46
	lsls	r0, r3, #1
.Ltmp370:
	@DEBUG_VALUE: CLK_SysTickDelay:u32TimeOutCnt <- $r0
	.loc	7 0 46 is_stmt 0                @ ../../M031BSP/Library/StdDriver/inc\clk.h:0:46
	movs	r3, #4
	str	r3, [sp, #4]                    @ 4-byte Spill
	.loc	7 521 5 is_stmt 1               @ ../../M031BSP/Library/StdDriver/inc\clk.h:521:5
	subs	r6, r3, r0
	lsls	r3, r1, #16
	b	.LBB6_2
.Ltmp371:
.LBB6_1:                                @   in Loop: Header=BB6_2 Depth=1
	@DEBUG_VALUE: CLK_SysTickDelay:us <- 100000
	@DEBUG_VALUE: i <- 0
	@DEBUG_VALUE: led_animasyon4:position <- 1
	adds	r6, r6, #4
	cmp	r0, #1
	beq	.LBB6_9
.Ltmp372:
.LBB6_2:                                @ =>This Inner Loop Header: Depth=1
	@DEBUG_VALUE: CLK_SysTickDelay:us <- 100000
	@DEBUG_VALUE: i <- 0
	@DEBUG_VALUE: led_animasyon4:position <- 1
	@DEBUG_VALUE: CLK_SysTickDelay:u32TimeOutCnt <- [DW_OP_LLVM_arg 0, DW_OP_consts 4, DW_OP_consts 18446744073709551614, DW_OP_LLVM_arg 0, DW_OP_mul, DW_OP_plus, DW_OP_minus, DW_OP_consts 4, DW_OP_div, DW_OP_consts 18446744073709551612, DW_OP_mul, DW_OP_consts 2, DW_OP_LLVM_arg 0, DW_OP_mul, DW_OP_plus, DW_OP_stack_value] undef
	.loc	7 521 22 is_stmt 0              @ ../../M031BSP/Library/StdDriver/inc\clk.h:521:22
	ldr	r0, [r2]
.Ltmp373:
	@DEBUG_VALUE: CLK_SysTickDelay:u32TimeOutCnt <- [DW_OP_constu 1, DW_OP_minus, DW_OP_stack_value] $r6
	.loc	7 521 5                         @ ../../M031BSP/Library/StdDriver/inc\clk.h:521:5
	tst	r0, r3
	bne	.LBB6_9
.Ltmp374:
@ %bb.3:                                @   in Loop: Header=BB6_2 Depth=1
	@DEBUG_VALUE: CLK_SysTickDelay:u32TimeOutCnt <- [DW_OP_constu 1, DW_OP_minus, DW_OP_stack_value] $r6
	@DEBUG_VALUE: CLK_SysTickDelay:us <- 100000
	@DEBUG_VALUE: i <- 0
	@DEBUG_VALUE: led_animasyon4:position <- 1
	@DEBUG_VALUE: CLK_SysTickDelay:u32TimeOutCnt <- [DW_OP_constu 2, DW_OP_minus, DW_OP_stack_value] $r6
	.loc	7 0 5                           @ ../../M031BSP/Library/StdDriver/inc\clk.h:0:5
	subs	r0, r6, #2
	rsbs	r7, r0, #0
	adcs	r7, r0
	.loc	7 521 22                        @ ../../M031BSP/Library/StdDriver/inc\clk.h:521:22
	ldr	r0, [r2]
	.loc	7 521 5                         @ ../../M031BSP/Library/StdDriver/inc\clk.h:521:5
	tst	r0, r3
	mov	r0, r1
	bne	.LBB6_5
.Ltmp375:
@ %bb.4:                                @   in Loop: Header=BB6_2 Depth=1
	@DEBUG_VALUE: CLK_SysTickDelay:u32TimeOutCnt <- [DW_OP_constu 2, DW_OP_minus, DW_OP_stack_value] $r6
	@DEBUG_VALUE: CLK_SysTickDelay:us <- 100000
	@DEBUG_VALUE: i <- 0
	@DEBUG_VALUE: led_animasyon4:position <- 1
	.loc	7 0 5                           @ ../../M031BSP/Library/StdDriver/inc\clk.h:0:5
	mov	r0, r7
.Ltmp376:
.LBB6_5:                                @   in Loop: Header=BB6_2 Depth=1
	@DEBUG_VALUE: CLK_SysTickDelay:u32TimeOutCnt <- [DW_OP_constu 2, DW_OP_minus, DW_OP_stack_value] $r6
	@DEBUG_VALUE: CLK_SysTickDelay:us <- 100000
	@DEBUG_VALUE: i <- 0
	@DEBUG_VALUE: led_animasyon4:position <- 1
	.loc	7 521 5                         @ ../../M031BSP/Library/StdDriver/inc\clk.h:521:5
	cmp	r0, #0
	bne	.LBB6_9
.Ltmp377:
@ %bb.6:                                @   in Loop: Header=BB6_2 Depth=1
	@DEBUG_VALUE: CLK_SysTickDelay:u32TimeOutCnt <- [DW_OP_constu 2, DW_OP_minus, DW_OP_stack_value] $r6
	@DEBUG_VALUE: CLK_SysTickDelay:us <- 100000
	@DEBUG_VALUE: i <- 0
	@DEBUG_VALUE: led_animasyon4:position <- 1
	@DEBUG_VALUE: CLK_SysTickDelay:u32TimeOutCnt <- [DW_OP_constu 2, DW_OP_minus, DW_OP_stack_value] $r6
	.loc	7 521 22                        @ ../../M031BSP/Library/StdDriver/inc\clk.h:521:22
	ldr	r0, [r2]
.Ltmp378:
	@DEBUG_VALUE: CLK_SysTickDelay:u32TimeOutCnt <- [DW_OP_constu 3, DW_OP_minus, DW_OP_stack_value] $r6
	.loc	7 521 5                         @ ../../M031BSP/Library/StdDriver/inc\clk.h:521:5
	tst	r0, r3
	bne	.LBB6_9
.Ltmp379:
@ %bb.7:                                @   in Loop: Header=BB6_2 Depth=1
	@DEBUG_VALUE: CLK_SysTickDelay:u32TimeOutCnt <- [DW_OP_constu 3, DW_OP_minus, DW_OP_stack_value] $r6
	@DEBUG_VALUE: CLK_SysTickDelay:us <- 100000
	@DEBUG_VALUE: i <- 0
	@DEBUG_VALUE: led_animasyon4:position <- 1
	@DEBUG_VALUE: CLK_SysTickDelay:u32TimeOutCnt <- [DW_OP_LLVM_arg 0, DW_OP_consts 4, DW_OP_consts 18446744073709551614, DW_OP_LLVM_arg 0, DW_OP_mul, DW_OP_plus, DW_OP_minus, DW_OP_consts 4, DW_OP_div, DW_OP_consts 18446744073709551612, DW_OP_mul, DW_OP_consts 18446744073709551612, DW_OP_consts 2, DW_OP_LLVM_arg 0, DW_OP_mul, DW_OP_plus, DW_OP_plus, DW_OP_stack_value] undef
	.loc	7 0 5                           @ ../../M031BSP/Library/StdDriver/inc\clk.h:0:5
	rsbs	r7, r6, #0
	adcs	r7, r6
	.loc	7 521 22                        @ ../../M031BSP/Library/StdDriver/inc\clk.h:521:22
	ldr	r0, [r2]
	.loc	7 521 5                         @ ../../M031BSP/Library/StdDriver/inc\clk.h:521:5
	tst	r0, r3
	mov	r0, r1
	bne	.LBB6_1
.Ltmp380:
@ %bb.8:                                @   in Loop: Header=BB6_2 Depth=1
	@DEBUG_VALUE: CLK_SysTickDelay:us <- 100000
	@DEBUG_VALUE: i <- 0
	@DEBUG_VALUE: led_animasyon4:position <- 1
	.loc	7 0 5                           @ ../../M031BSP/Library/StdDriver/inc\clk.h:0:5
	mov	r0, r7
	b	.LBB6_1
.Ltmp381:
.LBB6_9:
	@DEBUG_VALUE: CLK_SysTickDelay:us <- 100000
	@DEBUG_VALUE: i <- 0
	@DEBUG_VALUE: led_animasyon4:position <- 1
	ldr	r7, [sp, #12]                   @ 4-byte Reload
	.loc	7 530 19 is_stmt 1              @ ../../M031BSP/Library/StdDriver/inc\clk.h:530:19
	str	r7, [r2]
.Ltmp382:
	@DEBUG_VALUE: led_write:mask <- 2
	@DEBUG_VALUE: i <- 1
	.loc	2 35 7                          @ ../main.c:35:7
	str	r7, [r4, #8]
	movs	r0, #1
	str	r0, [sp]                        @ 4-byte Spill
	.loc	2 36 7                          @ ../main.c:36:7
	str	r0, [r4, #4]
	.loc	2 37 7                          @ ../main.c:37:7
	str	r7, [r4]
	.loc	2 38 7                          @ ../main.c:38:7
	str	r7, [r4, #32]
.Ltmp383:
	.loc	7 516 26                        @ ../../M031BSP/Library/StdDriver/inc\clk.h:516:26
	ldr	r0, __arm_cp.6_1
	ldr	r0, [r0]
	.loc	7 516 24 is_stmt 0              @ ../../M031BSP/Library/StdDriver/inc\clk.h:516:24
	muls	r0, r5, r0
	@DEBUG_VALUE: CLK_SysTickDelay:us <- 100000
	.loc	7 514 30 is_stmt 1              @ ../../M031BSP/Library/StdDriver/inc\clk.h:514:30
	ldr	r6, __arm_cp.6_3
	ldr	r6, [r6]
	.loc	7 516 19                        @ ../../M031BSP/Library/StdDriver/inc\clk.h:516:19
	str	r0, [r2, #4]
	.loc	7 517 19                        @ ../../M031BSP/Library/StdDriver/inc\clk.h:517:19
	str	r7, [r2, #8]
	.loc	7 518 19                        @ ../../M031BSP/Library/StdDriver/inc\clk.h:518:19
	ldr	r0, [sp, #8]                    @ 4-byte Reload
	str	r0, [r2]
	.loc	7 514 46                        @ ../../M031BSP/Library/StdDriver/inc\clk.h:514:46
	lsls	r0, r6, #1
.Ltmp384:
	@DEBUG_VALUE: CLK_SysTickDelay:u32TimeOutCnt <- $r0
	.loc	7 521 5                         @ ../../M031BSP/Library/StdDriver/inc\clk.h:521:5
	ldr	r6, [sp, #4]                    @ 4-byte Reload
	subs	r7, r6, r0
	b	.LBB6_11
.Ltmp385:
.LBB6_10:                               @   in Loop: Header=BB6_11 Depth=1
	@DEBUG_VALUE: i <- 1
	@DEBUG_VALUE: CLK_SysTickDelay:us <- 100000
	@DEBUG_VALUE: led_animasyon4:position <- 1
	adds	r7, r7, #4
	cmp	r0, #1
	beq	.LBB6_18
.Ltmp386:
.LBB6_11:                               @ =>This Inner Loop Header: Depth=1
	@DEBUG_VALUE: i <- 1
	@DEBUG_VALUE: CLK_SysTickDelay:us <- 100000
	@DEBUG_VALUE: led_animasyon4:position <- 1
	@DEBUG_VALUE: CLK_SysTickDelay:u32TimeOutCnt <- [DW_OP_LLVM_arg 0, DW_OP_consts 4, DW_OP_consts 18446744073709551614, DW_OP_LLVM_arg 0, DW_OP_mul, DW_OP_plus, DW_OP_minus, DW_OP_consts 4, DW_OP_div, DW_OP_consts 18446744073709551612, DW_OP_mul, DW_OP_consts 2, DW_OP_LLVM_arg 0, DW_OP_mul, DW_OP_plus, DW_OP_stack_value] undef
	.loc	7 521 22 is_stmt 0              @ ../../M031BSP/Library/StdDriver/inc\clk.h:521:22
	ldr	r0, [r2]
.Ltmp387:
	@DEBUG_VALUE: CLK_SysTickDelay:u32TimeOutCnt <- [DW_OP_constu 1, DW_OP_minus, DW_OP_stack_value] $r7
	.loc	7 521 5                         @ ../../M031BSP/Library/StdDriver/inc\clk.h:521:5
	tst	r0, r3
	bne	.LBB6_18
.Ltmp388:
@ %bb.12:                               @   in Loop: Header=BB6_11 Depth=1
	@DEBUG_VALUE: CLK_SysTickDelay:u32TimeOutCnt <- [DW_OP_constu 1, DW_OP_minus, DW_OP_stack_value] $r7
	@DEBUG_VALUE: i <- 1
	@DEBUG_VALUE: CLK_SysTickDelay:us <- 100000
	@DEBUG_VALUE: led_animasyon4:position <- 1
	@DEBUG_VALUE: CLK_SysTickDelay:u32TimeOutCnt <- [DW_OP_constu 2, DW_OP_minus, DW_OP_stack_value] $r7
	.loc	7 0 5                           @ ../../M031BSP/Library/StdDriver/inc\clk.h:0:5
	subs	r0, r7, #2
	rsbs	r6, r0, #0
	adcs	r6, r0
	.loc	7 521 22                        @ ../../M031BSP/Library/StdDriver/inc\clk.h:521:22
	ldr	r0, [r2]
	.loc	7 521 5                         @ ../../M031BSP/Library/StdDriver/inc\clk.h:521:5
	tst	r0, r3
	mov	r0, r1
	bne	.LBB6_14
.Ltmp389:
@ %bb.13:                               @   in Loop: Header=BB6_11 Depth=1
	@DEBUG_VALUE: CLK_SysTickDelay:u32TimeOutCnt <- [DW_OP_constu 2, DW_OP_minus, DW_OP_stack_value] $r7
	@DEBUG_VALUE: i <- 1
	@DEBUG_VALUE: CLK_SysTickDelay:us <- 100000
	@DEBUG_VALUE: led_animasyon4:position <- 1
	.loc	7 0 5                           @ ../../M031BSP/Library/StdDriver/inc\clk.h:0:5
	mov	r0, r6
.Ltmp390:
.LBB6_14:                               @   in Loop: Header=BB6_11 Depth=1
	@DEBUG_VALUE: CLK_SysTickDelay:u32TimeOutCnt <- [DW_OP_constu 2, DW_OP_minus, DW_OP_stack_value] $r7
	@DEBUG_VALUE: i <- 1
	@DEBUG_VALUE: CLK_SysTickDelay:us <- 100000
	@DEBUG_VALUE: led_animasyon4:position <- 1
	.loc	7 521 5                         @ ../../M031BSP/Library/StdDriver/inc\clk.h:521:5
	cmp	r0, #0
	bne	.LBB6_18
.Ltmp391:
@ %bb.15:                               @   in Loop: Header=BB6_11 Depth=1
	@DEBUG_VALUE: CLK_SysTickDelay:u32TimeOutCnt <- [DW_OP_constu 2, DW_OP_minus, DW_OP_stack_value] $r7
	@DEBUG_VALUE: i <- 1
	@DEBUG_VALUE: CLK_SysTickDelay:us <- 100000
	@DEBUG_VALUE: led_animasyon4:position <- 1
	@DEBUG_VALUE: CLK_SysTickDelay:u32TimeOutCnt <- [DW_OP_constu 2, DW_OP_minus, DW_OP_stack_value] $r7
	.loc	7 521 22                        @ ../../M031BSP/Library/StdDriver/inc\clk.h:521:22
	ldr	r0, [r2]
.Ltmp392:
	@DEBUG_VALUE: CLK_SysTickDelay:u32TimeOutCnt <- [DW_OP_constu 3, DW_OP_minus, DW_OP_stack_value] $r7
	.loc	7 521 5                         @ ../../M031BSP/Library/StdDriver/inc\clk.h:521:5
	tst	r0, r3
	bne	.LBB6_18
.Ltmp393:
@ %bb.16:                               @   in Loop: Header=BB6_11 Depth=1
	@DEBUG_VALUE: CLK_SysTickDelay:u32TimeOutCnt <- [DW_OP_constu 3, DW_OP_minus, DW_OP_stack_value] $r7
	@DEBUG_VALUE: i <- 1
	@DEBUG_VALUE: CLK_SysTickDelay:us <- 100000
	@DEBUG_VALUE: led_animasyon4:position <- 1
	@DEBUG_VALUE: CLK_SysTickDelay:u32TimeOutCnt <- [DW_OP_LLVM_arg 0, DW_OP_consts 4, DW_OP_consts 18446744073709551614, DW_OP_LLVM_arg 0, DW_OP_mul, DW_OP_plus, DW_OP_minus, DW_OP_consts 4, DW_OP_div, DW_OP_consts 18446744073709551612, DW_OP_mul, DW_OP_consts 18446744073709551612, DW_OP_consts 2, DW_OP_LLVM_arg 0, DW_OP_mul, DW_OP_plus, DW_OP_plus, DW_OP_stack_value] undef
	.loc	7 0 5                           @ ../../M031BSP/Library/StdDriver/inc\clk.h:0:5
	rsbs	r6, r7, #0
	adcs	r6, r7
	.loc	7 521 22                        @ ../../M031BSP/Library/StdDriver/inc\clk.h:521:22
	ldr	r0, [r2]
	.loc	7 521 5                         @ ../../M031BSP/Library/StdDriver/inc\clk.h:521:5
	tst	r0, r3
	mov	r0, r1
	bne	.LBB6_10
.Ltmp394:
@ %bb.17:                               @   in Loop: Header=BB6_11 Depth=1
	@DEBUG_VALUE: i <- 1
	@DEBUG_VALUE: CLK_SysTickDelay:us <- 100000
	@DEBUG_VALUE: led_animasyon4:position <- 1
	.loc	7 0 5                           @ ../../M031BSP/Library/StdDriver/inc\clk.h:0:5
	mov	r0, r6
	b	.LBB6_10
.Ltmp395:
.LBB6_18:
	@DEBUG_VALUE: i <- 1
	@DEBUG_VALUE: CLK_SysTickDelay:us <- 100000
	@DEBUG_VALUE: led_animasyon4:position <- 1
	ldr	r7, [sp, #12]                   @ 4-byte Reload
	.loc	7 530 19 is_stmt 1              @ ../../M031BSP/Library/StdDriver/inc\clk.h:530:19
	str	r7, [r2]
.Ltmp396:
	@DEBUG_VALUE: led_write:mask <- 4
	@DEBUG_VALUE: i <- 2
	.loc	2 35 7                          @ ../main.c:35:7
	str	r7, [r4, #8]
	.loc	2 36 7                          @ ../main.c:36:7
	str	r7, [r4, #4]
	.loc	2 37 7                          @ ../main.c:37:7
	ldr	r0, [sp]                        @ 4-byte Reload
	str	r0, [r4]
	.loc	2 38 7                          @ ../main.c:38:7
	str	r7, [r4, #32]
.Ltmp397:
	.loc	7 516 26                        @ ../../M031BSP/Library/StdDriver/inc\clk.h:516:26
	ldr	r0, __arm_cp.6_1
	ldr	r0, [r0]
	.loc	7 516 24 is_stmt 0              @ ../../M031BSP/Library/StdDriver/inc\clk.h:516:24
	muls	r0, r5, r0
	@DEBUG_VALUE: CLK_SysTickDelay:us <- 100000
	.loc	7 514 30 is_stmt 1              @ ../../M031BSP/Library/StdDriver/inc\clk.h:514:30
	ldr	r6, __arm_cp.6_3
	ldr	r6, [r6]
	.loc	7 516 19                        @ ../../M031BSP/Library/StdDriver/inc\clk.h:516:19
	str	r0, [r2, #4]
	.loc	7 517 19                        @ ../../M031BSP/Library/StdDriver/inc\clk.h:517:19
	str	r7, [r2, #8]
	.loc	7 518 19                        @ ../../M031BSP/Library/StdDriver/inc\clk.h:518:19
	ldr	r0, [sp, #8]                    @ 4-byte Reload
	str	r0, [r2]
	.loc	7 514 46                        @ ../../M031BSP/Library/StdDriver/inc\clk.h:514:46
	lsls	r0, r6, #1
.Ltmp398:
	@DEBUG_VALUE: CLK_SysTickDelay:u32TimeOutCnt <- $r0
	.loc	7 521 5                         @ ../../M031BSP/Library/StdDriver/inc\clk.h:521:5
	ldr	r6, [sp, #4]                    @ 4-byte Reload
	subs	r7, r6, r0
	b	.LBB6_20
.Ltmp399:
.LBB6_19:                               @   in Loop: Header=BB6_20 Depth=1
	@DEBUG_VALUE: i <- 2
	@DEBUG_VALUE: CLK_SysTickDelay:us <- 100000
	@DEBUG_VALUE: led_animasyon4:position <- 1
	adds	r7, r7, #4
	cmp	r0, #1
	beq	.LBB6_27
.Ltmp400:
.LBB6_20:                               @ =>This Inner Loop Header: Depth=1
	@DEBUG_VALUE: i <- 2
	@DEBUG_VALUE: CLK_SysTickDelay:us <- 100000
	@DEBUG_VALUE: led_animasyon4:position <- 1
	@DEBUG_VALUE: CLK_SysTickDelay:u32TimeOutCnt <- [DW_OP_LLVM_arg 0, DW_OP_consts 4, DW_OP_consts 18446744073709551614, DW_OP_LLVM_arg 0, DW_OP_mul, DW_OP_plus, DW_OP_minus, DW_OP_consts 4, DW_OP_div, DW_OP_consts 18446744073709551612, DW_OP_mul, DW_OP_consts 2, DW_OP_LLVM_arg 0, DW_OP_mul, DW_OP_plus, DW_OP_stack_value] undef
	.loc	7 521 22 is_stmt 0              @ ../../M031BSP/Library/StdDriver/inc\clk.h:521:22
	ldr	r0, [r2]
.Ltmp401:
	@DEBUG_VALUE: CLK_SysTickDelay:u32TimeOutCnt <- [DW_OP_constu 1, DW_OP_minus, DW_OP_stack_value] $r7
	.loc	7 521 5                         @ ../../M031BSP/Library/StdDriver/inc\clk.h:521:5
	tst	r0, r3
	bne	.LBB6_27
.Ltmp402:
@ %bb.21:                               @   in Loop: Header=BB6_20 Depth=1
	@DEBUG_VALUE: i <- 2
	@DEBUG_VALUE: CLK_SysTickDelay:u32TimeOutCnt <- [DW_OP_constu 1, DW_OP_minus, DW_OP_stack_value] $r7
	@DEBUG_VALUE: CLK_SysTickDelay:us <- 100000
	@DEBUG_VALUE: led_animasyon4:position <- 1
	@DEBUG_VALUE: CLK_SysTickDelay:u32TimeOutCnt <- [DW_OP_constu 2, DW_OP_minus, DW_OP_stack_value] $r7
	.loc	7 0 5                           @ ../../M031BSP/Library/StdDriver/inc\clk.h:0:5
	subs	r0, r7, #2
	rsbs	r6, r0, #0
	adcs	r6, r0
	.loc	7 521 22                        @ ../../M031BSP/Library/StdDriver/inc\clk.h:521:22
	ldr	r0, [r2]
	.loc	7 521 5                         @ ../../M031BSP/Library/StdDriver/inc\clk.h:521:5
	tst	r0, r3
	mov	r0, r1
	bne	.LBB6_23
.Ltmp403:
@ %bb.22:                               @   in Loop: Header=BB6_20 Depth=1
	@DEBUG_VALUE: i <- 2
	@DEBUG_VALUE: CLK_SysTickDelay:u32TimeOutCnt <- [DW_OP_constu 2, DW_OP_minus, DW_OP_stack_value] $r7
	@DEBUG_VALUE: CLK_SysTickDelay:us <- 100000
	@DEBUG_VALUE: led_animasyon4:position <- 1
	.loc	7 0 5                           @ ../../M031BSP/Library/StdDriver/inc\clk.h:0:5
	mov	r0, r6
.Ltmp404:
.LBB6_23:                               @   in Loop: Header=BB6_20 Depth=1
	@DEBUG_VALUE: i <- 2
	@DEBUG_VALUE: CLK_SysTickDelay:u32TimeOutCnt <- [DW_OP_constu 2, DW_OP_minus, DW_OP_stack_value] $r7
	@DEBUG_VALUE: CLK_SysTickDelay:us <- 100000
	@DEBUG_VALUE: led_animasyon4:position <- 1
	.loc	7 521 5                         @ ../../M031BSP/Library/StdDriver/inc\clk.h:521:5
	cmp	r0, #0
	bne	.LBB6_27
.Ltmp405:
@ %bb.24:                               @   in Loop: Header=BB6_20 Depth=1
	@DEBUG_VALUE: i <- 2
	@DEBUG_VALUE: CLK_SysTickDelay:u32TimeOutCnt <- [DW_OP_constu 2, DW_OP_minus, DW_OP_stack_value] $r7
	@DEBUG_VALUE: CLK_SysTickDelay:us <- 100000
	@DEBUG_VALUE: led_animasyon4:position <- 1
	@DEBUG_VALUE: CLK_SysTickDelay:u32TimeOutCnt <- [DW_OP_constu 2, DW_OP_minus, DW_OP_stack_value] $r7
	.loc	7 521 22                        @ ../../M031BSP/Library/StdDriver/inc\clk.h:521:22
	ldr	r0, [r2]
.Ltmp406:
	@DEBUG_VALUE: CLK_SysTickDelay:u32TimeOutCnt <- [DW_OP_constu 3, DW_OP_minus, DW_OP_stack_value] $r7
	.loc	7 521 5                         @ ../../M031BSP/Library/StdDriver/inc\clk.h:521:5
	tst	r0, r3
	bne	.LBB6_27
.Ltmp407:
@ %bb.25:                               @   in Loop: Header=BB6_20 Depth=1
	@DEBUG_VALUE: i <- 2
	@DEBUG_VALUE: CLK_SysTickDelay:u32TimeOutCnt <- [DW_OP_constu 3, DW_OP_minus, DW_OP_stack_value] $r7
	@DEBUG_VALUE: CLK_SysTickDelay:us <- 100000
	@DEBUG_VALUE: led_animasyon4:position <- 1
	@DEBUG_VALUE: CLK_SysTickDelay:u32TimeOutCnt <- [DW_OP_LLVM_arg 0, DW_OP_consts 4, DW_OP_consts 18446744073709551614, DW_OP_LLVM_arg 0, DW_OP_mul, DW_OP_plus, DW_OP_minus, DW_OP_consts 4, DW_OP_div, DW_OP_consts 18446744073709551612, DW_OP_mul, DW_OP_consts 18446744073709551612, DW_OP_consts 2, DW_OP_LLVM_arg 0, DW_OP_mul, DW_OP_plus, DW_OP_plus, DW_OP_stack_value] undef
	.loc	7 0 5                           @ ../../M031BSP/Library/StdDriver/inc\clk.h:0:5
	rsbs	r6, r7, #0
	adcs	r6, r7
	.loc	7 521 22                        @ ../../M031BSP/Library/StdDriver/inc\clk.h:521:22
	ldr	r0, [r2]
	.loc	7 521 5                         @ ../../M031BSP/Library/StdDriver/inc\clk.h:521:5
	tst	r0, r3
	mov	r0, r1
	bne	.LBB6_19
.Ltmp408:
@ %bb.26:                               @   in Loop: Header=BB6_20 Depth=1
	@DEBUG_VALUE: i <- 2
	@DEBUG_VALUE: CLK_SysTickDelay:us <- 100000
	@DEBUG_VALUE: led_animasyon4:position <- 1
	.loc	7 0 5                           @ ../../M031BSP/Library/StdDriver/inc\clk.h:0:5
	mov	r0, r6
	b	.LBB6_19
.Ltmp409:
.LBB6_27:
	@DEBUG_VALUE: i <- 2
	@DEBUG_VALUE: CLK_SysTickDelay:us <- 100000
	@DEBUG_VALUE: led_animasyon4:position <- 1
	ldr	r7, [sp, #12]                   @ 4-byte Reload
	.loc	7 530 19 is_stmt 1              @ ../../M031BSP/Library/StdDriver/inc\clk.h:530:19
	str	r7, [r2]
.Ltmp410:
	@DEBUG_VALUE: led_write:mask <- 8
	@DEBUG_VALUE: i <- 3
	.loc	2 35 7                          @ ../main.c:35:7
	str	r7, [r4, #8]
	.loc	2 36 7                          @ ../main.c:36:7
	str	r7, [r4, #4]
	.loc	2 37 7                          @ ../main.c:37:7
	str	r7, [r4]
	.loc	2 38 7                          @ ../main.c:38:7
	ldr	r0, [sp]                        @ 4-byte Reload
	str	r0, [r4, #32]
.Ltmp411:
	.loc	7 516 26                        @ ../../M031BSP/Library/StdDriver/inc\clk.h:516:26
	ldr	r0, __arm_cp.6_1
	ldr	r0, [r0]
	.loc	7 516 24 is_stmt 0              @ ../../M031BSP/Library/StdDriver/inc\clk.h:516:24
	muls	r0, r5, r0
	@DEBUG_VALUE: CLK_SysTickDelay:us <- 100000
	.loc	7 514 30 is_stmt 1              @ ../../M031BSP/Library/StdDriver/inc\clk.h:514:30
	ldr	r6, __arm_cp.6_3
	ldr	r6, [r6]
	.loc	7 516 19                        @ ../../M031BSP/Library/StdDriver/inc\clk.h:516:19
	str	r0, [r2, #4]
	.loc	7 517 19                        @ ../../M031BSP/Library/StdDriver/inc\clk.h:517:19
	str	r7, [r2, #8]
	.loc	7 518 19                        @ ../../M031BSP/Library/StdDriver/inc\clk.h:518:19
	ldr	r0, [sp, #8]                    @ 4-byte Reload
	str	r0, [r2]
	.loc	7 514 46                        @ ../../M031BSP/Library/StdDriver/inc\clk.h:514:46
	lsls	r0, r6, #1
.Ltmp412:
	@DEBUG_VALUE: CLK_SysTickDelay:u32TimeOutCnt <- $r0
	.loc	7 521 5                         @ ../../M031BSP/Library/StdDriver/inc\clk.h:521:5
	ldr	r6, [sp, #4]                    @ 4-byte Reload
	subs	r7, r6, r0
	b	.LBB6_29
.Ltmp413:
.LBB6_28:                               @   in Loop: Header=BB6_29 Depth=1
	@DEBUG_VALUE: i <- 3
	@DEBUG_VALUE: CLK_SysTickDelay:us <- 100000
	@DEBUG_VALUE: led_animasyon4:position <- 1
	adds	r7, r7, #4
	cmp	r0, #1
	beq	.LBB6_36
.Ltmp414:
.LBB6_29:                               @ =>This Inner Loop Header: Depth=1
	@DEBUG_VALUE: i <- 3
	@DEBUG_VALUE: CLK_SysTickDelay:us <- 100000
	@DEBUG_VALUE: led_animasyon4:position <- 1
	@DEBUG_VALUE: CLK_SysTickDelay:u32TimeOutCnt <- [DW_OP_LLVM_arg 0, DW_OP_consts 4, DW_OP_consts 18446744073709551614, DW_OP_LLVM_arg 0, DW_OP_mul, DW_OP_plus, DW_OP_minus, DW_OP_consts 4, DW_OP_div, DW_OP_consts 18446744073709551612, DW_OP_mul, DW_OP_consts 2, DW_OP_LLVM_arg 0, DW_OP_mul, DW_OP_plus, DW_OP_stack_value] undef
	.loc	7 521 22 is_stmt 0              @ ../../M031BSP/Library/StdDriver/inc\clk.h:521:22
	ldr	r0, [r2]
.Ltmp415:
	@DEBUG_VALUE: CLK_SysTickDelay:u32TimeOutCnt <- [DW_OP_constu 1, DW_OP_minus, DW_OP_stack_value] $r7
	.loc	7 521 5                         @ ../../M031BSP/Library/StdDriver/inc\clk.h:521:5
	tst	r0, r3
	bne	.LBB6_36
.Ltmp416:
@ %bb.30:                               @   in Loop: Header=BB6_29 Depth=1
	@DEBUG_VALUE: i <- 3
	@DEBUG_VALUE: CLK_SysTickDelay:u32TimeOutCnt <- [DW_OP_constu 1, DW_OP_minus, DW_OP_stack_value] $r7
	@DEBUG_VALUE: CLK_SysTickDelay:us <- 100000
	@DEBUG_VALUE: led_animasyon4:position <- 1
	@DEBUG_VALUE: CLK_SysTickDelay:u32TimeOutCnt <- [DW_OP_constu 2, DW_OP_minus, DW_OP_stack_value] $r7
	.loc	7 0 5                           @ ../../M031BSP/Library/StdDriver/inc\clk.h:0:5
	subs	r0, r7, #2
	rsbs	r6, r0, #0
	adcs	r6, r0
	.loc	7 521 22                        @ ../../M031BSP/Library/StdDriver/inc\clk.h:521:22
	ldr	r0, [r2]
	.loc	7 521 5                         @ ../../M031BSP/Library/StdDriver/inc\clk.h:521:5
	tst	r0, r3
	mov	r0, r1
	bne	.LBB6_32
.Ltmp417:
@ %bb.31:                               @   in Loop: Header=BB6_29 Depth=1
	@DEBUG_VALUE: i <- 3
	@DEBUG_VALUE: CLK_SysTickDelay:u32TimeOutCnt <- [DW_OP_constu 2, DW_OP_minus, DW_OP_stack_value] $r7
	@DEBUG_VALUE: CLK_SysTickDelay:us <- 100000
	@DEBUG_VALUE: led_animasyon4:position <- 1
	.loc	7 0 5                           @ ../../M031BSP/Library/StdDriver/inc\clk.h:0:5
	mov	r0, r6
.Ltmp418:
.LBB6_32:                               @   in Loop: Header=BB6_29 Depth=1
	@DEBUG_VALUE: i <- 3
	@DEBUG_VALUE: CLK_SysTickDelay:u32TimeOutCnt <- [DW_OP_constu 2, DW_OP_minus, DW_OP_stack_value] $r7
	@DEBUG_VALUE: CLK_SysTickDelay:us <- 100000
	@DEBUG_VALUE: led_animasyon4:position <- 1
	.loc	7 521 5                         @ ../../M031BSP/Library/StdDriver/inc\clk.h:521:5
	cmp	r0, #0
	bne	.LBB6_36
.Ltmp419:
@ %bb.33:                               @   in Loop: Header=BB6_29 Depth=1
	@DEBUG_VALUE: i <- 3
	@DEBUG_VALUE: CLK_SysTickDelay:u32TimeOutCnt <- [DW_OP_constu 2, DW_OP_minus, DW_OP_stack_value] $r7
	@DEBUG_VALUE: CLK_SysTickDelay:us <- 100000
	@DEBUG_VALUE: led_animasyon4:position <- 1
	@DEBUG_VALUE: CLK_SysTickDelay:u32TimeOutCnt <- [DW_OP_constu 2, DW_OP_minus, DW_OP_stack_value] $r7
	.loc	7 521 22                        @ ../../M031BSP/Library/StdDriver/inc\clk.h:521:22
	ldr	r0, [r2]
.Ltmp420:
	@DEBUG_VALUE: CLK_SysTickDelay:u32TimeOutCnt <- [DW_OP_constu 3, DW_OP_minus, DW_OP_stack_value] $r7
	.loc	7 521 5                         @ ../../M031BSP/Library/StdDriver/inc\clk.h:521:5
	tst	r0, r3
	bne	.LBB6_36
.Ltmp421:
@ %bb.34:                               @   in Loop: Header=BB6_29 Depth=1
	@DEBUG_VALUE: i <- 3
	@DEBUG_VALUE: CLK_SysTickDelay:u32TimeOutCnt <- [DW_OP_constu 3, DW_OP_minus, DW_OP_stack_value] $r7
	@DEBUG_VALUE: CLK_SysTickDelay:us <- 100000
	@DEBUG_VALUE: led_animasyon4:position <- 1
	@DEBUG_VALUE: CLK_SysTickDelay:u32TimeOutCnt <- [DW_OP_LLVM_arg 0, DW_OP_consts 4, DW_OP_consts 18446744073709551614, DW_OP_LLVM_arg 0, DW_OP_mul, DW_OP_plus, DW_OP_minus, DW_OP_consts 4, DW_OP_div, DW_OP_consts 18446744073709551612, DW_OP_mul, DW_OP_consts 18446744073709551612, DW_OP_consts 2, DW_OP_LLVM_arg 0, DW_OP_mul, DW_OP_plus, DW_OP_plus, DW_OP_stack_value] undef
	.loc	7 0 5                           @ ../../M031BSP/Library/StdDriver/inc\clk.h:0:5
	rsbs	r6, r7, #0
	adcs	r6, r7
	.loc	7 521 22                        @ ../../M031BSP/Library/StdDriver/inc\clk.h:521:22
	ldr	r0, [r2]
	.loc	7 521 5                         @ ../../M031BSP/Library/StdDriver/inc\clk.h:521:5
	tst	r0, r3
	mov	r0, r1
	bne	.LBB6_28
.Ltmp422:
@ %bb.35:                               @   in Loop: Header=BB6_29 Depth=1
	@DEBUG_VALUE: i <- 3
	@DEBUG_VALUE: CLK_SysTickDelay:us <- 100000
	@DEBUG_VALUE: led_animasyon4:position <- 1
	.loc	7 0 5                           @ ../../M031BSP/Library/StdDriver/inc\clk.h:0:5
	mov	r0, r6
	b	.LBB6_28
.Ltmp423:
.LBB6_36:
	@DEBUG_VALUE: i <- 3
	@DEBUG_VALUE: CLK_SysTickDelay:us <- 100000
	@DEBUG_VALUE: led_animasyon4:position <- 1
	ldr	r7, [sp, #12]                   @ 4-byte Reload
	.loc	7 530 19 is_stmt 1              @ ../../M031BSP/Library/StdDriver/inc\clk.h:530:19
	str	r7, [r2]
.Ltmp424:
	@DEBUG_VALUE: led_write:mask <- [DW_OP_LLVM_arg 0, DW_OP_LLVM_arg 1, DW_OP_LLVM_convert 8 7, DW_OP_LLVM_convert 32 7, DW_OP_shl, DW_OP_stack_value] 1, 3
	@DEBUG_VALUE: i <- 3
	@DEBUG_VALUE: i <- 4
	.loc	2 35 7                          @ ../main.c:35:7
	str	r7, [r4, #8]
	.loc	2 36 7                          @ ../main.c:36:7
	str	r7, [r4, #4]
	.loc	2 37 7                          @ ../main.c:37:7
	str	r7, [r4]
	.loc	2 38 7                          @ ../main.c:38:7
	ldr	r0, [sp]                        @ 4-byte Reload
	str	r0, [r4, #32]
.Ltmp425:
	.loc	7 516 26                        @ ../../M031BSP/Library/StdDriver/inc\clk.h:516:26
	ldr	r0, __arm_cp.6_1
	ldr	r0, [r0]
	.loc	7 516 24 is_stmt 0              @ ../../M031BSP/Library/StdDriver/inc\clk.h:516:24
	muls	r0, r5, r0
.Ltmp426:
	@DEBUG_VALUE: CLK_SysTickDelay:us <- 100000
	.loc	7 514 30 is_stmt 1              @ ../../M031BSP/Library/StdDriver/inc\clk.h:514:30
	ldr	r6, __arm_cp.6_3
	ldr	r6, [r6]
	.loc	7 516 19                        @ ../../M031BSP/Library/StdDriver/inc\clk.h:516:19
	str	r0, [r2, #4]
	.loc	7 517 19                        @ ../../M031BSP/Library/StdDriver/inc\clk.h:517:19
	str	r7, [r2, #8]
	.loc	7 518 19                        @ ../../M031BSP/Library/StdDriver/inc\clk.h:518:19
	ldr	r0, [sp, #8]                    @ 4-byte Reload
	str	r0, [r2]
	.loc	7 514 46                        @ ../../M031BSP/Library/StdDriver/inc\clk.h:514:46
	lsls	r0, r6, #1
.Ltmp427:
	@DEBUG_VALUE: CLK_SysTickDelay:u32TimeOutCnt <- $r0
	.loc	7 521 5                         @ ../../M031BSP/Library/StdDriver/inc\clk.h:521:5
	ldr	r6, [sp, #4]                    @ 4-byte Reload
	subs	r7, r6, r0
	b	.LBB6_38
.Ltmp428:
.LBB6_37:                               @   in Loop: Header=BB6_38 Depth=1
	@DEBUG_VALUE: CLK_SysTickDelay:us <- 100000
	@DEBUG_VALUE: i <- 3
	@DEBUG_VALUE: led_animasyon4:position <- 1
	adds	r7, r7, #4
	cmp	r0, #1
	beq	.LBB6_45
.Ltmp429:
.LBB6_38:                               @ =>This Inner Loop Header: Depth=1
	@DEBUG_VALUE: CLK_SysTickDelay:us <- 100000
	@DEBUG_VALUE: i <- 3
	@DEBUG_VALUE: led_animasyon4:position <- 1
	@DEBUG_VALUE: CLK_SysTickDelay:u32TimeOutCnt <- [DW_OP_LLVM_arg 0, DW_OP_consts 4, DW_OP_consts 18446744073709551614, DW_OP_LLVM_arg 0, DW_OP_mul, DW_OP_plus, DW_OP_minus, DW_OP_consts 4, DW_OP_div, DW_OP_consts 18446744073709551612, DW_OP_mul, DW_OP_consts 2, DW_OP_LLVM_arg 0, DW_OP_mul, DW_OP_plus, DW_OP_stack_value] undef
	.loc	7 521 22 is_stmt 0              @ ../../M031BSP/Library/StdDriver/inc\clk.h:521:22
	ldr	r0, [r2]
.Ltmp430:
	@DEBUG_VALUE: CLK_SysTickDelay:u32TimeOutCnt <- [DW_OP_constu 1, DW_OP_minus, DW_OP_stack_value] $r7
	.loc	7 521 5                         @ ../../M031BSP/Library/StdDriver/inc\clk.h:521:5
	tst	r0, r3
	bne	.LBB6_45
.Ltmp431:
@ %bb.39:                               @   in Loop: Header=BB6_38 Depth=1
	@DEBUG_VALUE: CLK_SysTickDelay:u32TimeOutCnt <- [DW_OP_constu 1, DW_OP_minus, DW_OP_stack_value] $r7
	@DEBUG_VALUE: CLK_SysTickDelay:us <- 100000
	@DEBUG_VALUE: i <- 3
	@DEBUG_VALUE: led_animasyon4:position <- 1
	@DEBUG_VALUE: CLK_SysTickDelay:u32TimeOutCnt <- [DW_OP_constu 2, DW_OP_minus, DW_OP_stack_value] $r7
	.loc	7 0 5                           @ ../../M031BSP/Library/StdDriver/inc\clk.h:0:5
	subs	r0, r7, #2
	rsbs	r6, r0, #0
	adcs	r6, r0
	.loc	7 521 22                        @ ../../M031BSP/Library/StdDriver/inc\clk.h:521:22
	ldr	r0, [r2]
	.loc	7 521 5                         @ ../../M031BSP/Library/StdDriver/inc\clk.h:521:5
	tst	r0, r3
	mov	r0, r1
	bne	.LBB6_41
.Ltmp432:
@ %bb.40:                               @   in Loop: Header=BB6_38 Depth=1
	@DEBUG_VALUE: CLK_SysTickDelay:u32TimeOutCnt <- [DW_OP_constu 2, DW_OP_minus, DW_OP_stack_value] $r7
	@DEBUG_VALUE: CLK_SysTickDelay:us <- 100000
	@DEBUG_VALUE: i <- 3
	@DEBUG_VALUE: led_animasyon4:position <- 1
	.loc	7 0 5                           @ ../../M031BSP/Library/StdDriver/inc\clk.h:0:5
	mov	r0, r6
.Ltmp433:
.LBB6_41:                               @   in Loop: Header=BB6_38 Depth=1
	@DEBUG_VALUE: CLK_SysTickDelay:u32TimeOutCnt <- [DW_OP_constu 2, DW_OP_minus, DW_OP_stack_value] $r7
	@DEBUG_VALUE: CLK_SysTickDelay:us <- 100000
	@DEBUG_VALUE: i <- 3
	@DEBUG_VALUE: led_animasyon4:position <- 1
	.loc	7 521 5                         @ ../../M031BSP/Library/StdDriver/inc\clk.h:521:5
	cmp	r0, #0
	bne	.LBB6_45
.Ltmp434:
@ %bb.42:                               @   in Loop: Header=BB6_38 Depth=1
	@DEBUG_VALUE: CLK_SysTickDelay:u32TimeOutCnt <- [DW_OP_constu 2, DW_OP_minus, DW_OP_stack_value] $r7
	@DEBUG_VALUE: CLK_SysTickDelay:us <- 100000
	@DEBUG_VALUE: i <- 3
	@DEBUG_VALUE: led_animasyon4:position <- 1
	@DEBUG_VALUE: CLK_SysTickDelay:u32TimeOutCnt <- [DW_OP_constu 2, DW_OP_minus, DW_OP_stack_value] $r7
	.loc	7 521 22                        @ ../../M031BSP/Library/StdDriver/inc\clk.h:521:22
	ldr	r0, [r2]
.Ltmp435:
	@DEBUG_VALUE: CLK_SysTickDelay:u32TimeOutCnt <- [DW_OP_constu 3, DW_OP_minus, DW_OP_stack_value] $r7
	.loc	7 521 5                         @ ../../M031BSP/Library/StdDriver/inc\clk.h:521:5
	tst	r0, r3
	bne	.LBB6_45
.Ltmp436:
@ %bb.43:                               @   in Loop: Header=BB6_38 Depth=1
	@DEBUG_VALUE: CLK_SysTickDelay:u32TimeOutCnt <- [DW_OP_constu 3, DW_OP_minus, DW_OP_stack_value] $r7
	@DEBUG_VALUE: CLK_SysTickDelay:us <- 100000
	@DEBUG_VALUE: i <- 3
	@DEBUG_VALUE: led_animasyon4:position <- 1
	@DEBUG_VALUE: CLK_SysTickDelay:u32TimeOutCnt <- [DW_OP_LLVM_arg 0, DW_OP_consts 4, DW_OP_consts 18446744073709551614, DW_OP_LLVM_arg 0, DW_OP_mul, DW_OP_plus, DW_OP_minus, DW_OP_consts 4, DW_OP_div, DW_OP_consts 18446744073709551612, DW_OP_mul, DW_OP_consts 18446744073709551612, DW_OP_consts 2, DW_OP_LLVM_arg 0, DW_OP_mul, DW_OP_plus, DW_OP_plus, DW_OP_stack_value] undef
	.loc	7 0 5                           @ ../../M031BSP/Library/StdDriver/inc\clk.h:0:5
	rsbs	r6, r7, #0
	adcs	r6, r7
	.loc	7 521 22                        @ ../../M031BSP/Library/StdDriver/inc\clk.h:521:22
	ldr	r0, [r2]
	.loc	7 521 5                         @ ../../M031BSP/Library/StdDriver/inc\clk.h:521:5
	tst	r0, r3
	mov	r0, r1
	bne	.LBB6_37
.Ltmp437:
@ %bb.44:                               @   in Loop: Header=BB6_38 Depth=1
	@DEBUG_VALUE: CLK_SysTickDelay:us <- 100000
	@DEBUG_VALUE: i <- 3
	@DEBUG_VALUE: led_animasyon4:position <- 1
	.loc	7 0 5                           @ ../../M031BSP/Library/StdDriver/inc\clk.h:0:5
	mov	r0, r6
	b	.LBB6_37
.Ltmp438:
.LBB6_45:
	@DEBUG_VALUE: CLK_SysTickDelay:us <- 100000
	@DEBUG_VALUE: i <- 3
	@DEBUG_VALUE: led_animasyon4:position <- 1
	ldr	r7, [sp, #12]                   @ 4-byte Reload
	.loc	7 530 19 is_stmt 1              @ ../../M031BSP/Library/StdDriver/inc\clk.h:530:19
	str	r7, [r2]
.Ltmp439:
	@DEBUG_VALUE: led_write:mask <- [DW_OP_LLVM_arg 0, DW_OP_LLVM_arg 1, DW_OP_LLVM_convert 8 7, DW_OP_LLVM_convert 32 7, DW_OP_shl, DW_OP_stack_value] 1, 2
	@DEBUG_VALUE: i <- 2
	.loc	2 35 7                          @ ../main.c:35:7
	str	r7, [r4, #8]
	.loc	2 36 7                          @ ../main.c:36:7
	str	r7, [r4, #4]
	.loc	2 37 7                          @ ../main.c:37:7
	ldr	r0, [sp]                        @ 4-byte Reload
	str	r0, [r4]
	.loc	2 38 7                          @ ../main.c:38:7
	str	r7, [r4, #32]
.Ltmp440:
	.loc	7 516 26                        @ ../../M031BSP/Library/StdDriver/inc\clk.h:516:26
	ldr	r0, __arm_cp.6_1
	ldr	r0, [r0]
	.loc	7 516 24 is_stmt 0              @ ../../M031BSP/Library/StdDriver/inc\clk.h:516:24
	muls	r0, r5, r0
	@DEBUG_VALUE: CLK_SysTickDelay:us <- 100000
	.loc	7 514 30 is_stmt 1              @ ../../M031BSP/Library/StdDriver/inc\clk.h:514:30
	ldr	r6, __arm_cp.6_3
	ldr	r6, [r6]
	.loc	7 516 19                        @ ../../M031BSP/Library/StdDriver/inc\clk.h:516:19
	str	r0, [r2, #4]
	.loc	7 517 19                        @ ../../M031BSP/Library/StdDriver/inc\clk.h:517:19
	str	r7, [r2, #8]
	.loc	7 518 19                        @ ../../M031BSP/Library/StdDriver/inc\clk.h:518:19
	ldr	r0, [sp, #8]                    @ 4-byte Reload
	str	r0, [r2]
	.loc	7 514 46                        @ ../../M031BSP/Library/StdDriver/inc\clk.h:514:46
	lsls	r0, r6, #1
.Ltmp441:
	@DEBUG_VALUE: CLK_SysTickDelay:u32TimeOutCnt <- $r0
	.loc	7 521 5                         @ ../../M031BSP/Library/StdDriver/inc\clk.h:521:5
	ldr	r6, [sp, #4]                    @ 4-byte Reload
	subs	r7, r6, r0
	b	.LBB6_47
.Ltmp442:
.LBB6_46:                               @   in Loop: Header=BB6_47 Depth=1
	@DEBUG_VALUE: i <- 2
	@DEBUG_VALUE: CLK_SysTickDelay:us <- 100000
	@DEBUG_VALUE: led_animasyon4:position <- 1
	adds	r7, r7, #4
	cmp	r0, #1
	beq	.LBB6_54
.Ltmp443:
.LBB6_47:                               @ =>This Inner Loop Header: Depth=1
	@DEBUG_VALUE: i <- 2
	@DEBUG_VALUE: CLK_SysTickDelay:us <- 100000
	@DEBUG_VALUE: led_animasyon4:position <- 1
	@DEBUG_VALUE: CLK_SysTickDelay:u32TimeOutCnt <- [DW_OP_LLVM_arg 0, DW_OP_consts 4, DW_OP_consts 18446744073709551614, DW_OP_LLVM_arg 0, DW_OP_mul, DW_OP_plus, DW_OP_minus, DW_OP_consts 4, DW_OP_div, DW_OP_consts 18446744073709551612, DW_OP_mul, DW_OP_consts 2, DW_OP_LLVM_arg 0, DW_OP_mul, DW_OP_plus, DW_OP_stack_value] undef
	.loc	7 521 22 is_stmt 0              @ ../../M031BSP/Library/StdDriver/inc\clk.h:521:22
	ldr	r0, [r2]
.Ltmp444:
	@DEBUG_VALUE: CLK_SysTickDelay:u32TimeOutCnt <- [DW_OP_constu 1, DW_OP_minus, DW_OP_stack_value] $r7
	.loc	7 521 5                         @ ../../M031BSP/Library/StdDriver/inc\clk.h:521:5
	tst	r0, r3
	bne	.LBB6_54
.Ltmp445:
@ %bb.48:                               @   in Loop: Header=BB6_47 Depth=1
	@DEBUG_VALUE: i <- 2
	@DEBUG_VALUE: CLK_SysTickDelay:u32TimeOutCnt <- [DW_OP_constu 1, DW_OP_minus, DW_OP_stack_value] $r7
	@DEBUG_VALUE: CLK_SysTickDelay:us <- 100000
	@DEBUG_VALUE: led_animasyon4:position <- 1
	@DEBUG_VALUE: CLK_SysTickDelay:u32TimeOutCnt <- [DW_OP_constu 2, DW_OP_minus, DW_OP_stack_value] $r7
	.loc	7 0 5                           @ ../../M031BSP/Library/StdDriver/inc\clk.h:0:5
	subs	r0, r7, #2
	rsbs	r6, r0, #0
	adcs	r6, r0
	.loc	7 521 22                        @ ../../M031BSP/Library/StdDriver/inc\clk.h:521:22
	ldr	r0, [r2]
	.loc	7 521 5                         @ ../../M031BSP/Library/StdDriver/inc\clk.h:521:5
	tst	r0, r3
	mov	r0, r1
	bne	.LBB6_50
.Ltmp446:
@ %bb.49:                               @   in Loop: Header=BB6_47 Depth=1
	@DEBUG_VALUE: i <- 2
	@DEBUG_VALUE: CLK_SysTickDelay:u32TimeOutCnt <- [DW_OP_constu 2, DW_OP_minus, DW_OP_stack_value] $r7
	@DEBUG_VALUE: CLK_SysTickDelay:us <- 100000
	@DEBUG_VALUE: led_animasyon4:position <- 1
	.loc	7 0 5                           @ ../../M031BSP/Library/StdDriver/inc\clk.h:0:5
	mov	r0, r6
.Ltmp447:
.LBB6_50:                               @   in Loop: Header=BB6_47 Depth=1
	@DEBUG_VALUE: i <- 2
	@DEBUG_VALUE: CLK_SysTickDelay:u32TimeOutCnt <- [DW_OP_constu 2, DW_OP_minus, DW_OP_stack_value] $r7
	@DEBUG_VALUE: CLK_SysTickDelay:us <- 100000
	@DEBUG_VALUE: led_animasyon4:position <- 1
	.loc	7 521 5                         @ ../../M031BSP/Library/StdDriver/inc\clk.h:521:5
	cmp	r0, #0
	bne	.LBB6_54
.Ltmp448:
@ %bb.51:                               @   in Loop: Header=BB6_47 Depth=1
	@DEBUG_VALUE: i <- 2
	@DEBUG_VALUE: CLK_SysTickDelay:u32TimeOutCnt <- [DW_OP_constu 2, DW_OP_minus, DW_OP_stack_value] $r7
	@DEBUG_VALUE: CLK_SysTickDelay:us <- 100000
	@DEBUG_VALUE: led_animasyon4:position <- 1
	@DEBUG_VALUE: CLK_SysTickDelay:u32TimeOutCnt <- [DW_OP_constu 2, DW_OP_minus, DW_OP_stack_value] $r7
	.loc	7 521 22                        @ ../../M031BSP/Library/StdDriver/inc\clk.h:521:22
	ldr	r0, [r2]
.Ltmp449:
	@DEBUG_VALUE: CLK_SysTickDelay:u32TimeOutCnt <- [DW_OP_constu 3, DW_OP_minus, DW_OP_stack_value] $r7
	.loc	7 521 5                         @ ../../M031BSP/Library/StdDriver/inc\clk.h:521:5
	tst	r0, r3
	bne	.LBB6_54
.Ltmp450:
@ %bb.52:                               @   in Loop: Header=BB6_47 Depth=1
	@DEBUG_VALUE: i <- 2
	@DEBUG_VALUE: CLK_SysTickDelay:u32TimeOutCnt <- [DW_OP_constu 3, DW_OP_minus, DW_OP_stack_value] $r7
	@DEBUG_VALUE: CLK_SysTickDelay:us <- 100000
	@DEBUG_VALUE: led_animasyon4:position <- 1
	@DEBUG_VALUE: CLK_SysTickDelay:u32TimeOutCnt <- [DW_OP_LLVM_arg 0, DW_OP_consts 4, DW_OP_consts 18446744073709551614, DW_OP_LLVM_arg 0, DW_OP_mul, DW_OP_plus, DW_OP_minus, DW_OP_consts 4, DW_OP_div, DW_OP_consts 18446744073709551612, DW_OP_mul, DW_OP_consts 18446744073709551612, DW_OP_consts 2, DW_OP_LLVM_arg 0, DW_OP_mul, DW_OP_plus, DW_OP_plus, DW_OP_stack_value] undef
	.loc	7 0 5                           @ ../../M031BSP/Library/StdDriver/inc\clk.h:0:5
	rsbs	r6, r7, #0
	adcs	r6, r7
	.loc	7 521 22                        @ ../../M031BSP/Library/StdDriver/inc\clk.h:521:22
	ldr	r0, [r2]
	.loc	7 521 5                         @ ../../M031BSP/Library/StdDriver/inc\clk.h:521:5
	tst	r0, r3
	mov	r0, r1
	bne	.LBB6_46
.Ltmp451:
@ %bb.53:                               @   in Loop: Header=BB6_47 Depth=1
	@DEBUG_VALUE: i <- 2
	@DEBUG_VALUE: CLK_SysTickDelay:us <- 100000
	@DEBUG_VALUE: led_animasyon4:position <- 1
	.loc	7 0 5                           @ ../../M031BSP/Library/StdDriver/inc\clk.h:0:5
	mov	r0, r6
	b	.LBB6_46
.Ltmp452:
.LBB6_54:
	@DEBUG_VALUE: i <- 2
	@DEBUG_VALUE: CLK_SysTickDelay:us <- 100000
	@DEBUG_VALUE: led_animasyon4:position <- 1
	ldr	r6, [sp, #12]                   @ 4-byte Reload
	.loc	7 530 19 is_stmt 1              @ ../../M031BSP/Library/StdDriver/inc\clk.h:530:19
	str	r6, [r2]
.Ltmp453:
	@DEBUG_VALUE: led_write:mask <- [DW_OP_LLVM_arg 0, DW_OP_LLVM_arg 0, DW_OP_LLVM_convert 8 7, DW_OP_LLVM_convert 32 7, DW_OP_shl, DW_OP_stack_value] 1
	@DEBUG_VALUE: i <- 1
	.loc	2 35 7                          @ ../main.c:35:7
	str	r6, [r4, #8]
	.loc	2 36 7                          @ ../main.c:36:7
	ldr	r0, [sp]                        @ 4-byte Reload
	str	r0, [r4, #4]
	.loc	2 37 7                          @ ../main.c:37:7
	str	r6, [r4]
	.loc	2 38 7                          @ ../main.c:38:7
	str	r6, [r4, #32]
.Ltmp454:
	.loc	7 516 26                        @ ../../M031BSP/Library/StdDriver/inc\clk.h:516:26
	ldr	r0, __arm_cp.6_1
	ldr	r0, [r0]
	.loc	7 516 24 is_stmt 0              @ ../../M031BSP/Library/StdDriver/inc\clk.h:516:24
	muls	r5, r0, r5
	@DEBUG_VALUE: CLK_SysTickDelay:us <- 100000
	.loc	7 514 30 is_stmt 1              @ ../../M031BSP/Library/StdDriver/inc\clk.h:514:30
	ldr	r0, __arm_cp.6_3
	ldr	r0, [r0]
	.loc	7 516 19                        @ ../../M031BSP/Library/StdDriver/inc\clk.h:516:19
	str	r5, [r2, #4]
	.loc	7 517 19                        @ ../../M031BSP/Library/StdDriver/inc\clk.h:517:19
	str	r6, [r2, #8]
	.loc	7 518 19                        @ ../../M031BSP/Library/StdDriver/inc\clk.h:518:19
	ldr	r4, [sp, #8]                    @ 4-byte Reload
	str	r4, [r2]
	.loc	7 514 46                        @ ../../M031BSP/Library/StdDriver/inc\clk.h:514:46
	lsls	r0, r0, #1
.Ltmp455:
	@DEBUG_VALUE: CLK_SysTickDelay:u32TimeOutCnt <- $r0
	.loc	7 521 5                         @ ../../M031BSP/Library/StdDriver/inc\clk.h:521:5
	ldr	r4, [sp, #4]                    @ 4-byte Reload
	subs	r4, r4, r0
	b	.LBB6_56
.Ltmp456:
.LBB6_55:                               @   in Loop: Header=BB6_56 Depth=1
	@DEBUG_VALUE: i <- 1
	@DEBUG_VALUE: CLK_SysTickDelay:us <- 100000
	@DEBUG_VALUE: led_animasyon4:position <- 1
	adds	r4, r4, #4
	cmp	r0, #1
	beq	.LBB6_63
.Ltmp457:
.LBB6_56:                               @ =>This Inner Loop Header: Depth=1
	@DEBUG_VALUE: i <- 1
	@DEBUG_VALUE: CLK_SysTickDelay:us <- 100000
	@DEBUG_VALUE: led_animasyon4:position <- 1
	@DEBUG_VALUE: CLK_SysTickDelay:u32TimeOutCnt <- [DW_OP_LLVM_arg 0, DW_OP_consts 4, DW_OP_consts 18446744073709551614, DW_OP_LLVM_arg 0, DW_OP_mul, DW_OP_plus, DW_OP_minus, DW_OP_consts 4, DW_OP_div, DW_OP_consts 18446744073709551612, DW_OP_mul, DW_OP_consts 2, DW_OP_LLVM_arg 0, DW_OP_mul, DW_OP_plus, DW_OP_stack_value] undef
	.loc	7 521 22 is_stmt 0              @ ../../M031BSP/Library/StdDriver/inc\clk.h:521:22
	ldr	r0, [r2]
.Ltmp458:
	@DEBUG_VALUE: CLK_SysTickDelay:u32TimeOutCnt <- [DW_OP_constu 1, DW_OP_minus, DW_OP_stack_value] $r4
	.loc	7 521 5                         @ ../../M031BSP/Library/StdDriver/inc\clk.h:521:5
	tst	r0, r3
	bne	.LBB6_63
.Ltmp459:
@ %bb.57:                               @   in Loop: Header=BB6_56 Depth=1
	@DEBUG_VALUE: CLK_SysTickDelay:u32TimeOutCnt <- [DW_OP_constu 1, DW_OP_minus, DW_OP_stack_value] $r4
	@DEBUG_VALUE: i <- 1
	@DEBUG_VALUE: CLK_SysTickDelay:us <- 100000
	@DEBUG_VALUE: led_animasyon4:position <- 1
	@DEBUG_VALUE: CLK_SysTickDelay:u32TimeOutCnt <- [DW_OP_constu 2, DW_OP_minus, DW_OP_stack_value] $r4
	.loc	7 0 5                           @ ../../M031BSP/Library/StdDriver/inc\clk.h:0:5
	subs	r0, r4, #2
	rsbs	r5, r0, #0
	adcs	r5, r0
	.loc	7 521 22                        @ ../../M031BSP/Library/StdDriver/inc\clk.h:521:22
	ldr	r0, [r2]
	.loc	7 521 5                         @ ../../M031BSP/Library/StdDriver/inc\clk.h:521:5
	tst	r0, r3
	mov	r0, r1
	bne	.LBB6_59
.Ltmp460:
@ %bb.58:                               @   in Loop: Header=BB6_56 Depth=1
	@DEBUG_VALUE: CLK_SysTickDelay:u32TimeOutCnt <- [DW_OP_constu 2, DW_OP_minus, DW_OP_stack_value] $r4
	@DEBUG_VALUE: i <- 1
	@DEBUG_VALUE: CLK_SysTickDelay:us <- 100000
	@DEBUG_VALUE: led_animasyon4:position <- 1
	.loc	7 0 5                           @ ../../M031BSP/Library/StdDriver/inc\clk.h:0:5
	mov	r0, r5
.Ltmp461:
.LBB6_59:                               @   in Loop: Header=BB6_56 Depth=1
	@DEBUG_VALUE: CLK_SysTickDelay:u32TimeOutCnt <- [DW_OP_constu 2, DW_OP_minus, DW_OP_stack_value] $r4
	@DEBUG_VALUE: i <- 1
	@DEBUG_VALUE: CLK_SysTickDelay:us <- 100000
	@DEBUG_VALUE: led_animasyon4:position <- 1
	.loc	7 521 5                         @ ../../M031BSP/Library/StdDriver/inc\clk.h:521:5
	cmp	r0, #0
	bne	.LBB6_63
.Ltmp462:
@ %bb.60:                               @   in Loop: Header=BB6_56 Depth=1
	@DEBUG_VALUE: CLK_SysTickDelay:u32TimeOutCnt <- [DW_OP_constu 2, DW_OP_minus, DW_OP_stack_value] $r4
	@DEBUG_VALUE: i <- 1
	@DEBUG_VALUE: CLK_SysTickDelay:us <- 100000
	@DEBUG_VALUE: led_animasyon4:position <- 1
	@DEBUG_VALUE: CLK_SysTickDelay:u32TimeOutCnt <- [DW_OP_constu 2, DW_OP_minus, DW_OP_stack_value] $r4
	.loc	7 521 22                        @ ../../M031BSP/Library/StdDriver/inc\clk.h:521:22
	ldr	r0, [r2]
.Ltmp463:
	@DEBUG_VALUE: CLK_SysTickDelay:u32TimeOutCnt <- [DW_OP_constu 3, DW_OP_minus, DW_OP_stack_value] $r4
	.loc	7 521 5                         @ ../../M031BSP/Library/StdDriver/inc\clk.h:521:5
	tst	r0, r3
	bne	.LBB6_63
.Ltmp464:
@ %bb.61:                               @   in Loop: Header=BB6_56 Depth=1
	@DEBUG_VALUE: CLK_SysTickDelay:u32TimeOutCnt <- [DW_OP_constu 3, DW_OP_minus, DW_OP_stack_value] $r4
	@DEBUG_VALUE: i <- 1
	@DEBUG_VALUE: CLK_SysTickDelay:us <- 100000
	@DEBUG_VALUE: led_animasyon4:position <- 1
	@DEBUG_VALUE: CLK_SysTickDelay:u32TimeOutCnt <- [DW_OP_LLVM_arg 0, DW_OP_consts 4, DW_OP_consts 18446744073709551614, DW_OP_LLVM_arg 0, DW_OP_mul, DW_OP_plus, DW_OP_minus, DW_OP_consts 4, DW_OP_div, DW_OP_consts 18446744073709551612, DW_OP_mul, DW_OP_consts 18446744073709551612, DW_OP_consts 2, DW_OP_LLVM_arg 0, DW_OP_mul, DW_OP_plus, DW_OP_plus, DW_OP_stack_value] undef
	.loc	7 0 5                           @ ../../M031BSP/Library/StdDriver/inc\clk.h:0:5
	rsbs	r5, r4, #0
	adcs	r5, r4
	.loc	7 521 22                        @ ../../M031BSP/Library/StdDriver/inc\clk.h:521:22
	ldr	r0, [r2]
	.loc	7 521 5                         @ ../../M031BSP/Library/StdDriver/inc\clk.h:521:5
	tst	r0, r3
	mov	r0, r1
	bne	.LBB6_55
.Ltmp465:
@ %bb.62:                               @   in Loop: Header=BB6_56 Depth=1
	@DEBUG_VALUE: i <- 1
	@DEBUG_VALUE: CLK_SysTickDelay:us <- 100000
	@DEBUG_VALUE: led_animasyon4:position <- 1
	.loc	7 0 5                           @ ../../M031BSP/Library/StdDriver/inc\clk.h:0:5
	mov	r0, r5
	b	.LBB6_55
.Ltmp466:
.LBB6_63:
	@DEBUG_VALUE: i <- 1
	@DEBUG_VALUE: CLK_SysTickDelay:us <- 100000
	@DEBUG_VALUE: led_animasyon4:position <- 1
	.loc	7 530 19 is_stmt 1              @ ../../M031BSP/Library/StdDriver/inc\clk.h:530:19
	ldr	r0, [sp, #12]                   @ 4-byte Reload
	str	r0, [r2]
.Ltmp467:
	@DEBUG_VALUE: i <- 0
	.loc	2 209 1 epilogue_begin          @ ../main.c:209:1
	add	sp, #16
	pop	{r4, r5, r6, r7, pc}
.Ltmp468:
	.p2align	2
@ %bb.64:
	.loc	2 0 1 is_stmt 0                 @ ../main.c:0:1
__arm_cp.6_0:
	.long	1073760600                      @ 0x40004958
.Lcpi_end31:
	.size	__arm_cp.6_0, .Lcpi_end31-__arm_cp.6_0
__arm_cp.6_1:
	.long	CyclesPerUs
.Lcpi_end32:
	.size	__arm_cp.6_1, .Lcpi_end32-__arm_cp.6_1
__arm_cp.6_2:
	.long	100000                          @ 0x186a0
.Lcpi_end33:
	.size	__arm_cp.6_2, .Lcpi_end33-__arm_cp.6_2
__arm_cp.6_3:
	.long	SystemCoreClock
.Lcpi_end34:
	.size	__arm_cp.6_3, .Lcpi_end34-__arm_cp.6_3
__arm_cp.6_4:
	.long	3758153744                      @ 0xe000e010
.Lcpi_end35:
	.size	__arm_cp.6_4, .Lcpi_end35-__arm_cp.6_4
.Lfunc_end6:
	.size	led_animasyon4, .Lfunc_end6-led_animasyon4
	.cfi_endproc
	.cantunwind
	.fnend
                                        @ -- End function
	.section	.text.GPCDEF_IRQHandler,"ax",%progbits
	.hidden	GPCDEF_IRQHandler               @ -- Begin function GPCDEF_IRQHandler
	.globl	GPCDEF_IRQHandler
	.p2align	2
	.type	GPCDEF_IRQHandler,%function
	.code	16                              @ @GPCDEF_IRQHandler
	.thumb_func
GPCDEF_IRQHandler:
.Lfunc_begin7:
	.loc	2 228 0 is_stmt 1               @ ../main.c:228:0
	.fnstart
	.cfi_startproc
@ %bb.0:
	.save	{r4, lr}
	push	{r4, lr}
	.cfi_def_cfa_offset 8
	.cfi_offset lr, -4
	.cfi_offset r4, -8
	.pad	#8
	sub	sp, #8
	.cfi_def_cfa_offset 16
	ldr	r1, __arm_cp.7_0
.Ltmp469:
	.loc	2 232 8 prologue_end            @ ../main.c:232:8
	ldr	r0, [r1]
.Ltmp470:
	.loc	2 232 8 is_stmt 0               @ ../main.c:232:8
	lsls	r0, r0, #21
	bmi	.LBB7_2
@ %bb.1:
.Ltmp471:
	.loc	2 242 20 is_stmt 1              @ ../main.c:242:20
	ldr	r0, [r1]
	.loc	2 242 14 is_stmt 0              @ ../main.c:242:14
	str	r0, [sp, #4]
	adr	r0, .LCPI7_4
	.loc	2 243 22 is_stmt 1              @ ../main.c:243:22
	ldr	r2, [sp, #4]
	b	.LBB7_3
.Ltmp472:
.LBB7_2:
	.loc	2 0 22 is_stmt 0                @ ../main.c:0:22
	movs	r0, #1
	lsls	r2, r0, #10
	ldr	r0, __arm_cp.7_1
	movs	r3, #0
.Ltmp473:
	@DEBUG_VALUE: led_write:mask <- 0
	.loc	2 35 7 is_stmt 1                @ ../main.c:35:7
	str	r3, [r0, #8]
	.loc	2 36 7                          @ ../main.c:36:7
	str	r3, [r0, #4]
	.loc	2 37 7                          @ ../main.c:37:7
	str	r3, [r0]
.Ltmp474:
	.loc	2 234 20                        @ ../main.c:234:20
	ldr	r4, __arm_cp.7_2
	strb	r3, [r4]
.Ltmp475:
	.loc	2 38 7                          @ ../main.c:38:7
	str	r3, [r0, #32]
	@DEBUG_VALUE: led_write:mask <- 0
	adr	r0, .LCPI7_3
.Ltmp476:
.LBB7_3:
	.loc	2 0 0 is_stmt 0                 @ ../main.c:0:0
	str	r2, [r1]
	bl	puts
.Ltmp477:
	.loc	2 246 1 epilogue_begin is_stmt 1 @ ../main.c:246:1
	add	sp, #8
	pop	{r4, pc}
.Ltmp478:
	.p2align	2
@ %bb.4:
	.loc	2 0 1 is_stmt 0                 @ ../main.c:0:1
__arm_cp.7_0:
	.long	1073758368                      @ 0x400040a0
.Lcpi_end36:
	.size	__arm_cp.7_0, .Lcpi_end36-__arm_cp.7_0
__arm_cp.7_1:
	.long	1073760600                      @ 0x40004958
.Lcpi_end37:
	.size	__arm_cp.7_1, .Lcpi_end37-__arm_cp.7_1
__arm_cp.7_2:
	.long	anim_play_state
.Lcpi_end38:
	.size	__arm_cp.7_2, .Lcpi_end38-__arm_cp.7_2
.LCPI7_3:
.Lstr.2:
	.asciz	"PC.10 INT occurred."
.LCPI7_4:
.Lstr:
	.asciz	"Un-expected interrupts."
.Lfunc_end7:
	.size	GPCDEF_IRQHandler, .Lfunc_end7-GPCDEF_IRQHandler
	.cfi_endproc
	.cantunwind
	.fnend
                                        @ -- End function
	.hidden	anim_play_state                 @ @anim_play_state
	.type	anim_play_state,%object
	.section	.data.anim_play_state,"aw",%progbits
	.globl	anim_play_state
anim_play_state:
	.byte	1                               @ 0x1
	.size	anim_play_state, 1

	.hidden	curr_num_num                    @ @curr_num_num
	.type	curr_num_num,%object
	.section	.data.curr_num_num,"aw",%progbits
	.globl	curr_num_num
curr_num_num:
	.byte	1                               @ 0x1
	.size	curr_num_num, 1

	.type	__ARM_use_no_argv,%object       @ @__ARM_use_no_argv
	.section	.ARM.use_no_argv,"awR",%progbits,unique,1
	.globl	__ARM_use_no_argv
	.p2align	2, 0x0
__ARM_use_no_argv:
	.long	1                               @ 0x1
	.size	__ARM_use_no_argv, 4

	.section	".note.GNU-stack","",%progbits
	.eabi_attribute	30, 1	@ Tag_ABI_optimization_goals
	.ARM_attribute	16, 1	@ Tag_AV_eba