	.text
	.syntax unified
	.eabi_attribute	67, "2.09"	@ Tag_conformance
	.cpu	cortex-m0
	.eabi_attribute	6, 12	@ Tag_CPU_arch
	.eabi_attribute	7, 77	@ Tag_CPU_arch_profile
	.eabi_attribute	8, 0	@ Tag_ARM_ISA_use
	.eabi_attribute	9, 1	@ Tag_THUMB_ISA_use
	.eabi_attribute	34, 0	@ Tag_CPU_unaligned_access
	.eabi_attribute	17, 1	@ Tag_ABI_PCS_GOT_use
	.eabi_attribute	20, 2	@ Tag_ABI_FP_denormal
	.eabi_attribute	21, 0	@ Tag_ABI_FP_exceptions
	.eabi_attribute	23, 1	@ Tag_ABI_FP_number_model
	.eabi_attribute	24, 1	@ Tag_ABI_align_needed
	.eabi_attribute	25, 1	@ Tag_ABI_align_preserved
	.eabi_attribute	38, 1	@ Tag_ABI_FP_16bit_format
	.eabi_attribute	18, 2	@ Tag_ABI_PCS_wchar_t
	.eabi_attribute	26, 1	@ Tag_ABI_enum_size
	.eabi_attribute	14, 0	@ Tag_ABI_PCS_R9_use
	.file	"timer.c"
	.file	1 "C:\\Users\\mgokce\\AppData\\Local\\Keil_v5\\ARM\\ARMCLANG\\bin\\..\\include" "stdint.h"
	.file	2 "C:\\Nuvoton_ws\\M032GK_UART_1\\Keil" "../../M031BSP/Library/Device/Nuvoton/M031/Include\\timer_reg.h"
	.file	3 "C:\\Nuvoton_ws\\M032GK_UART_1\\Keil" "../../M031BSP/Library/Device/Nuvoton/M031/Include\\clk_reg.h"
	.section	.text.TIMER_Open,"ax",%progbits
	.hidden	TIMER_Open                      @ -- Begin function TIMER_Open
	.globl	TIMER_Open
	.p2align	2
	.type	TIMER_Open,%function
	.code	16                              @ @TIMER_Open
	.thumb_func
TIMER_Open:
.Lfunc_begin0:
	.file	4 "C:\\Nuvoton_ws\\M032GK_UART_1\\Keil" "../../M031BSP/Library/StdDriver/src/timer.c"
	.loc	4 45 0                          @ ../../M031BSP/Library/StdDriver/src/timer.c:45:0
	.fnstart
	.cfi_sections .debug_frame
	.cfi_startproc
@ %bb.0:
	@DEBUG_VALUE: TIMER_Open:timer <- $r0
	@DEBUG_VALUE: TIMER_Open:u32Mode <- $r1
	@DEBUG_VALUE: TIMER_Open:u32Freq <- $r2
	.save	{r4, r5, r6, r7, lr}
	push	{r4, r5, r6, r7, lr}
	.cfi_def_cfa_offset 20
	.cfi_offset lr, -4
	.cfi_offset r7, -8
	.cfi_offset r6, -12
	.cfi_offset r5, -16
	.cfi_offset r4, -20
	.pad	#4
	sub	sp, #4
	.cfi_def_cfa_offset 24
	mov	r6, r2
.Ltmp0:
	@DEBUG_VALUE: TIMER_Open:u32Freq <- $r6
	mov	r5, r1
.Ltmp1:
	@DEBUG_VALUE: TIMER_Open:u32Mode <- $r5
	mov	r4, r0
.Ltmp2:
	@DEBUG_VALUE: TIMER_Open:timer <- $r4
	ldr	r0, __arm_cp.0_0
	ldr	r1, __arm_cp.0_1
.Ltmp3:
	@DEBUG_VALUE: TIMER_GetModuleClock:timer <- $r4
	.loc	4 259 8 prologue_end            @ ../../M031BSP/Library/StdDriver/src/timer.c:259:8
	cmp	r4, r1
	beq	.LBB0_4
.Ltmp4:
@ %bb.1:
	@DEBUG_VALUE: TIMER_GetModuleClock:timer <- $r4
	@DEBUG_VALUE: TIMER_Open:timer <- $r4
	@DEBUG_VALUE: TIMER_Open:u32Mode <- $r5
	@DEBUG_VALUE: TIMER_Open:u32Freq <- $r6
	.loc	4 0 0 is_stmt 0                 @ ../../M031BSP/Library/StdDriver/src/timer.c:0:0
	ldr	r0, [r0]
	ldr	r1, __arm_cp.0_2
.Ltmp5:
	.loc	4 261 13 is_stmt 1              @ ../../M031BSP/Library/StdDriver/src/timer.c:261:13
	cmp	r4, r1
	beq	.LBB0_5
.Ltmp6:
@ %bb.2:
	@DEBUG_VALUE: TIMER_GetModuleClock:timer <- $r4
	@DEBUG_VALUE: TIMER_Open:timer <- $r4
	@DEBUG_VALUE: TIMER_Open:u32Mode <- $r5
	@DEBUG_VALUE: TIMER_Open:u32Freq <- $r6
	.loc	4 0 13 is_stmt 0                @ ../../M031BSP/Library/StdDriver/src/timer.c:0:13
	ldr	r1, __arm_cp.0_3
	.loc	4 261 13                        @ ../../M031BSP/Library/StdDriver/src/timer.c:261:13
	cmp	r4, r1
	bne	.LBB0_6
.Ltmp7:
@ %bb.3:
	@DEBUG_VALUE: TIMER_GetModuleClock:timer <- $r4
	@DEBUG_VALUE: TIMER_Open:timer <- $r4
	@DEBUG_VALUE: TIMER_Open:u32Mode <- $r5
	@DEBUG_VALUE: TIMER_Open:u32Freq <- $r6
	.loc	4 262 59 is_stmt 1              @ ../../M031BSP/Library/StdDriver/src/timer.c:262:59
	lsrs	r0, r0, #12
.Ltmp8:
	@DEBUG_VALUE: TIMER_GetModuleClock:u32Src <- [DW_OP_constu 7, DW_OP_and, DW_OP_stack_value] $r0
	.loc	4 0 59 is_stmt 0                @ ../../M031BSP/Library/StdDriver/src/timer.c:0:59
	b	.LBB0_7
.Ltmp9:
.LBB0_4:
	@DEBUG_VALUE: TIMER_GetModuleClock:timer <- $r4
	@DEBUG_VALUE: TIMER_Open:timer <- $r4
	@DEBUG_VALUE: TIMER_Open:u32Mode <- $r5
	@DEBUG_VALUE: TIMER_Open:u32Freq <- $r6
	.loc	4 260 24 is_stmt 1              @ ../../M031BSP/Library/StdDriver/src/timer.c:260:24
	ldr	r0, [r0]
	.loc	4 260 59 is_stmt 0              @ ../../M031BSP/Library/StdDriver/src/timer.c:260:59
	lsrs	r0, r0, #8
.Ltmp10:
	@DEBUG_VALUE: TIMER_GetModuleClock:u32Src <- [DW_OP_constu 7, DW_OP_and, DW_OP_stack_value] $r0
	.loc	4 0 59                          @ ../../M031BSP/Library/StdDriver/src/timer.c:0:59
	b	.LBB0_7
.Ltmp11:
.LBB0_5:
	@DEBUG_VALUE: TIMER_GetModuleClock:timer <- $r4
	@DEBUG_VALUE: TIMER_Open:timer <- $r4
	@DEBUG_VALUE: TIMER_Open:u32Mode <- $r5
	@DEBUG_VALUE: TIMER_Open:u32Freq <- $r6
	.loc	4 264 59 is_stmt 1              @ ../../M031BSP/Library/StdDriver/src/timer.c:264:59
	lsrs	r0, r0, #16
.Ltmp12:
	@DEBUG_VALUE: TIMER_GetModuleClock:u32Src <- [DW_OP_constu 7, DW_OP_and, DW_OP_stack_value] $r0
	.loc	4 0 59 is_stmt 0                @ ../../M031BSP/Library/StdDriver/src/timer.c:0:59
	b	.LBB0_7
.Ltmp13:
.LBB0_6:
	@DEBUG_VALUE: TIMER_GetModuleClock:timer <- $r4
	@DEBUG_VALUE: TIMER_Open:timer <- $r4
	@DEBUG_VALUE: TIMER_Open:u32Mode <- $r5
	@DEBUG_VALUE: TIMER_Open:u32Freq <- $r6
	.loc	4 266 59 is_stmt 1              @ ../../M031BSP/Library/StdDriver/src/timer.c:266:59
	lsrs	r0, r0, #20
.Ltmp14:
	@DEBUG_VALUE: TIMER_GetModuleClock:u32Src <- [DW_OP_constu 7, DW_OP_and, DW_OP_stack_value] $r0
.LBB0_7:
	@DEBUG_VALUE: TIMER_GetModuleClock:u32Src <- [DW_OP_constu 7, DW_OP_and, DW_OP_stack_value] $r0
	@DEBUG_VALUE: TIMER_GetModuleClock:timer <- $r4
	@DEBUG_VALUE: TIMER_Open:timer <- $r4
	@DEBUG_VALUE: TIMER_Open:u32Mode <- $r5
	@DEBUG_VALUE: TIMER_Open:u32Freq <- $r6
	.loc	4 0 59 is_stmt 0                @ ../../M031BSP/Library/StdDriver/src/timer.c:0:59
	movs	r1, #7
	ands	r1, r0
.Ltmp15:
	@DEBUG_VALUE: TIMER_GetModuleClock:u32Src <- $r1
	.loc	4 268 8 is_stmt 1               @ ../../M031BSP/Library/StdDriver/src/timer.c:268:8
	cmp	r1, #2
	bne	.LBB0_10
.Ltmp16:
@ %bb.8:
	@DEBUG_VALUE: TIMER_GetModuleClock:u32Src <- $r1
	@DEBUG_VALUE: TIMER_GetModuleClock:timer <- $r4
	@DEBUG_VALUE: TIMER_Open:timer <- $r4
	@DEBUG_VALUE: TIMER_Open:u32Mode <- $r5
	@DEBUG_VALUE: TIMER_Open:u32Freq <- $r6
	.loc	4 0 8 is_stmt 0                 @ ../../M031BSP/Library/StdDriver/src/timer.c:0:8
	movs	r0, #32
.Ltmp17:
	.loc	4 270 31 is_stmt 1              @ ../../M031BSP/Library/StdDriver/src/timer.c:270:31
	orrs	r0, r4
	ldr	r1, __arm_cp.0_3
.Ltmp18:
	cmp	r0, r1
	bne	.LBB0_11
.Ltmp19:
@ %bb.9:
	@DEBUG_VALUE: TIMER_GetModuleClock:timer <- $r4
	@DEBUG_VALUE: TIMER_Open:timer <- $r4
	@DEBUG_VALUE: TIMER_Open:u32Mode <- $r5
	@DEBUG_VALUE: TIMER_Open:u32Freq <- $r6
	.loc	4 271 20                        @ ../../M031BSP/Library/StdDriver/src/timer.c:271:20
	bl	CLK_GetPCLK0Freq
.Ltmp20:
	.loc	4 0 20 is_stmt 0                @ ../../M031BSP/Library/StdDriver/src/timer.c:0:20
	b	.LBB0_12
.Ltmp21:
.LBB0_10:
	@DEBUG_VALUE: TIMER_GetModuleClock:u32Src <- $r1
	@DEBUG_VALUE: TIMER_GetModuleClock:timer <- $r4
	@DEBUG_VALUE: TIMER_Open:timer <- $r4
	@DEBUG_VALUE: TIMER_Open:u32Mode <- $r5
	@DEBUG_VALUE: TIMER_Open:u32Freq <- $r6
	.loc	4 276 13 is_stmt 1              @ ../../M031BSP/Library/StdDriver/src/timer.c:276:13
	lsls	r0, r1, #2
	ldr	r1, __arm_cp.0_4
.Ltmp22:
	ldr	r0, [r1, r0]
	b	.LBB0_12
.Ltmp23:
.LBB0_11:
	@DEBUG_VALUE: TIMER_GetModuleClock:timer <- $r4
	@DEBUG_VALUE: TIMER_Open:timer <- $r4
	@DEBUG_VALUE: TIMER_Open:u32Mode <- $r5
	@DEBUG_VALUE: TIMER_Open:u32Freq <- $r6
	.loc	4 273 20                        @ ../../M031BSP/Library/StdDriver/src/timer.c:273:20
	bl	CLK_GetPCLK1Freq
.Ltmp24:
.LBB0_12:
	@DEBUG_VALUE: TIMER_Open:timer <- $r4
	@DEBUG_VALUE: TIMER_Open:u32Mode <- $r5
	@DEBUG_VALUE: TIMER_Open:u32Freq <- $r6
	@DEBUG_VALUE: TIMER_Open:u32Clk <- $r0
	@DEBUG_VALUE: TIMER_Open:u32Cmpr <- 0
	@DEBUG_VALUE: TIMER_Open:u32Prescale <- 0
	.loc	4 50 27                         @ ../../M031BSP/Library/StdDriver/src/timer.c:50:27
	lsrs	r1, r0, #1
	movs	r7, #0
.Ltmp25:
	.loc	4 50 8 is_stmt 0                @ ../../M031BSP/Library/StdDriver/src/timer.c:50:8
	cmp	r6, r1
	bhs	.LBB0_16
.Ltmp26:
@ %bb.13:
	@DEBUG_VALUE: TIMER_Open:u32Prescale <- 0
	@DEBUG_VALUE: TIMER_Open:u32Cmpr <- 0
	@DEBUG_VALUE: TIMER_Open:u32Clk <- $r0
	@DEBUG_VALUE: TIMER_Open:timer <- $r4
	@DEBUG_VALUE: TIMER_Open:u32Mode <- $r5
	@DEBUG_VALUE: TIMER_Open:u32Freq <- $r6
	.loc	4 0 8                           @ ../../M031BSP/Library/StdDriver/src/timer.c:0:8
	str	r0, [sp]                        @ 4-byte Spill
.Ltmp27:
	.loc	4 56 26 is_stmt 1               @ ../../M031BSP/Library/StdDriver/src/timer.c:56:26
	mov	r1, r6
	bl	__aeabi_uidiv
.Ltmp28:
	mov	r2, r0
.Ltmp29:
	@DEBUG_VALUE: TIMER_Open:u32Prescale <- [DW_OP_constu 24, DW_OP_shr, DW_OP_stack_value] $r2
	@DEBUG_VALUE: TIMER_Open:u32Cmpr <- $r2
	.loc	4 57 32                         @ ../../M031BSP/Library/StdDriver/src/timer.c:57:32
	lsrs	r6, r0, #24
.Ltmp30:
	@DEBUG_VALUE: TIMER_Open:u32Freq <- [DW_OP_LLVM_entry_value 1] $r2
	.loc	4 58 13                         @ ../../M031BSP/Library/StdDriver/src/timer.c:58:13
	beq	.LBB0_15
.Ltmp31:
@ %bb.14:
	@DEBUG_VALUE: TIMER_Open:u32Freq <- [DW_OP_LLVM_entry_value 1] $r2
	@DEBUG_VALUE: TIMER_Open:u32Cmpr <- $r2
	@DEBUG_VALUE: TIMER_Open:u32Prescale <- [DW_OP_constu 24, DW_OP_shr, DW_OP_stack_value] $r2
	@DEBUG_VALUE: TIMER_Open:timer <- $r4
	@DEBUG_VALUE: TIMER_Open:u32Mode <- $r5
	@DEBUG_VALUE: TIMER_Open:u32Prescale <- $r6
	.loc	4 59 46                         @ ../../M031BSP/Library/StdDriver/src/timer.c:59:46
	adds	r1, r6, #1
	.loc	4 59 31 is_stmt 0               @ ../../M031BSP/Library/StdDriver/src/timer.c:59:31
	mov	r0, r2
	bl	__aeabi_uidiv
.Ltmp32:
	mov	r2, r0
.Ltmp33:
	@DEBUG_VALUE: TIMER_Open:u32Cmpr <- $r2
	.loc	4 0 31                          @ ../../M031BSP/Library/StdDriver/src/timer.c:0:31
	mov	r7, r6
.Ltmp34:
	@DEBUG_VALUE: TIMER_Open:u32Prescale <- $r7
	@DEBUG_VALUE: TIMER_Open:u32Prescale <- $r7
.LBB0_15:
	@DEBUG_VALUE: TIMER_Open:u32Freq <- [DW_OP_LLVM_entry_value 1] $r2
	@DEBUG_VALUE: TIMER_Open:u32Cmpr <- $r2
	@DEBUG_VALUE: TIMER_Open:timer <- $r4
	@DEBUG_VALUE: TIMER_Open:u32Mode <- $r5
	ldr	r0, [sp]                        @ 4-byte Reload
	b	.LBB0_17
.Ltmp35:
.LBB0_16:
	@DEBUG_VALUE: TIMER_Open:u32Prescale <- 0
	@DEBUG_VALUE: TIMER_Open:u32Cmpr <- 0
	@DEBUG_VALUE: TIMER_Open:u32Clk <- $r0
	@DEBUG_VALUE: TIMER_Open:timer <- $r4
	@DEBUG_VALUE: TIMER_Open:u32Mode <- $r5
	@DEBUG_VALUE: TIMER_Open:u32Freq <- $r6
	movs	r2, #2
.Ltmp36:
.LBB0_17:
	@DEBUG_VALUE: TIMER_Open:timer <- $r4
	@DEBUG_VALUE: TIMER_Open:u32Mode <- $r5
	@DEBUG_VALUE: TIMER_Open:u32Cmpr <- $r2
	@DEBUG_VALUE: TIMER_Open:u32Prescale <- $r7
	.loc	4 62 26 is_stmt 1               @ ../../M031BSP/Library/StdDriver/src/timer.c:62:26
	orrs	r5, r7
.Ltmp37:
	@DEBUG_VALUE: TIMER_Open:u32Mode <- [DW_OP_LLVM_entry_value 1] $r1
	.loc	4 62 16 is_stmt 0               @ ../../M031BSP/Library/StdDriver/src/timer.c:62:16
	str	r5, [r4]
	.loc	4 63 16 is_stmt 1               @ ../../M031BSP/Library/StdDriver/src/timer.c:63:16
	str	r2, [r4, #4]
	.loc	4 65 45                         @ ../../M031BSP/Library/StdDriver/src/timer.c:65:45
	adds	r1, r7, #1
	.loc	4 65 30 is_stmt 0               @ ../../M031BSP/Library/StdDriver/src/timer.c:65:30
	muls	r1, r2, r1
	.loc	4 65 19                         @ ../../M031BSP/Library/StdDriver/src/timer.c:65:19
	bl	__aeabi_uidiv
.Ltmp38:
	.loc	4 65 5 epilogue_begin           @ ../../M031BSP/Library/StdDriver/src/timer.c:65:5
	add	sp, #4
	pop	{r4, r5, r6, r7, pc}
.Ltmp39:
	.p2align	2
@ %bb.18:
	.loc	4 0 5                           @ ../../M031BSP/Library/StdDriver/src/timer.c:0:5
__arm_cp.0_0:
	.long	1073742356                      @ 0x40000214
.Lcpi_end0:
	.size	__arm_cp.0_0, .Lcpi_end0-__arm_cp.0_0
__arm_cp.0_1:
	.long	1074069504                      @ 0x40050000
.Lcpi_end1:
	.size	__arm_cp.0_1, .Lcpi_end1-__arm_cp.0_1
__arm_cp.0_2:
	.long	1074073600                      @ 0x40051000
.Lcpi_end2:
	.size	__arm_cp.0_2, .Lcpi_end2-__arm_cp.0_2
__arm_cp.0_3:
	.long	1074069536                      @ 0x40050020
.Lcpi_end3:
	.size	__arm_cp.0_3, .Lcpi_end3-__arm_cp.0_3
__arm_cp.0_4:
	.long	.L__const.TIMER_GetModuleClock.au32Clk
.Lcpi_end4:
	.size	__arm_cp.0_4, .Lcpi_end4-__arm_cp.0_4
.Lfunc_end0:
	.size	TIMER_Open, .Lfunc_end0-TIMER_Open
	.cfi_endproc
	.cantunwind
	.fnend
                                        @ -- End function
	.section	.text.TIMER_GetModuleClock,"ax",%progbits
	.hidden	TIMER_GetModuleClock            @ -- Begin function TIMER_GetModuleClock
	.globl	TIMER_GetModuleClock
	.p2align	2
	.type	TIMER_GetModuleClock,%function
	.code	16                              @ @TIMER_GetModuleClock
	.thumb_func
TIMER_GetModuleClock:
.Lfunc_begin1:
	.loc	4 255 0 is_stmt 1               @ ../../M031BSP/Library/StdDriver/src/timer.c:255:0
	.fnstart
	.cfi_startproc
@ %bb.0:
	@DEBUG_VALUE: TIMER_GetModuleClock:timer <- $r0
	.save	{r7, lr}
	push	{r7, lr}
	.cfi_def_cfa_offset 8
	.cfi_offset lr, -4
	.cfi_offset r7, -8
	ldr	r1, __arm_cp.1_0
	ldr	r2, __arm_cp.1_1
.Ltmp40:
	.loc	4 259 8 prologue_end            @ ../../M031BSP/Library/StdDriver/src/timer.c:259:8
	cmp	r0, r2
	beq	.LBB1_4
.Ltmp41:
@ %bb.1:
	@DEBUG_VALUE: TIMER_GetModuleClock:timer <- $r0
	.loc	4 0 0 is_stmt 0                 @ ../../M031BSP/Library/StdDriver/src/timer.c:0:0
	ldr	r1, [r1]
	ldr	r2, __arm_cp.1_2
.Ltmp42:
	.loc	4 261 13 is_stmt 1              @ ../../M031BSP/Library/StdDriver/src/timer.c:261:13
	cmp	r0, r2
	beq	.LBB1_5
.Ltmp43:
@ %bb.2:
	@DEBUG_VALUE: TIMER_GetModuleClock:timer <- $r0
	.loc	4 0 13 is_stmt 0                @ ../../M031BSP/Library/StdDriver/src/timer.c:0:13
	ldr	r2, __arm_cp.1_3
	.loc	4 261 13                        @ ../../M031BSP/Library/StdDriver/src/timer.c:261:13
	cmp	r0, r2
	bne	.LBB1_6
.Ltmp44:
@ %bb.3:
	@DEBUG_VALUE: TIMER_GetModuleClock:timer <- $r0
	.loc	4 262 59 is_stmt 1              @ ../../M031BSP/Library/StdDriver/src/timer.c:262:59
	lsrs	r1, r1, #12
.Ltmp45:
	@DEBUG_VALUE: TIMER_GetModuleClock:u32Src <- [DW_OP_constu 7, DW_OP_and, DW_OP_stack_value] $r1
	.loc	4 0 59 is_stmt 0                @ ../../M031BSP/Library/StdDriver/src/timer.c:0:59
	b	.LBB1_7
.Ltmp46:
.LBB1_4:
	@DEBUG_VALUE: TIMER_GetModuleClock:timer <- $r0
	.loc	4 260 24 is_stmt 1              @ ../../M031BSP/Library/StdDriver/src/timer.c:260:24
	ldr	r1, [r1]
	.loc	4 260 59 is_stmt 0              @ ../../M031BSP/Library/StdDriver/src/timer.c:260:59
	lsrs	r1, r1, #8
.Ltmp47:
	@DEBUG_VALUE: TIMER_GetModuleClock:u32Src <- [DW_OP_constu 7, DW_OP_and, DW_OP_stack_value] $r1
	.loc	4 0 59                          @ ../../M031BSP/Library/StdDriver/src/timer.c:0:59
	b	.LBB1_7
.Ltmp48:
.LBB1_5:
	@DEBUG_VALUE: TIMER_GetModuleClock:timer <- $r0
	.loc	4 264 59 is_stmt 1              @ ../../M031BSP/Library/StdDriver/src/timer.c:264:59
	lsrs	r1, r1, #16
.Ltmp49:
	@DEBUG_VALUE: TIMER_GetModuleClock:u32Src <- [DW_OP_constu 7, DW_OP_and, DW_OP_stack_value] $r1
	.loc	4 0 59 is_stmt 0                @ ../../M031BSP/Library/StdDriver/src/timer.c:0:59
	b	.LBB1_7
.Ltmp50:
.LBB1_6:
	@DEBUG_VALUE: TIMER_GetModuleClock:timer <- $r0
	.loc	4 266 59 is_stmt 1              @ ../../M031BSP/Library/StdDriver/src/timer.c:266:59
	lsrs	r1, r1, #20
.Ltmp51:
	@DEBUG_VALUE: TIMER_GetModuleClock:u32Src <- [DW_OP_constu 7, DW_OP_and, DW_OP_stack_value] $r1
.LBB1_7:
	@DEBUG_VALUE: TIMER_GetModuleClock:u32Src <- [DW_OP_constu 7, DW_OP_and, DW_OP_stack_value] $r1
	@DEBUG_VALUE: TIMER_GetModuleClock:timer <- $r0
	.loc	4 0 59 is_stmt 0                @ ../../M031BSP/Library/StdDriver/src/timer.c:0:59
	movs	r2, #7
	ands	r2, r1
.Ltmp52:
	@DEBUG_VALUE: TIMER_GetModuleClock:u32Src <- $r2
	.loc	4 268 8 is_stmt 1               @ ../../M031BSP/Library/StdDriver/src/timer.c:268:8
	cmp	r2, #2
	bne	.LBB1_10
.Ltmp53:
@ %bb.8:
	@DEBUG_VALUE: TIMER_GetModuleClock:u32Src <- $r2
	@DEBUG_VALUE: TIMER_GetModuleClock:timer <- $r0
	.loc	4 0 8 is_stmt 0                 @ ../../M031BSP/Library/StdDriver/src/timer.c:0:8
	movs	r1, #32
.Ltmp54:
	.loc	4 270 31 is_stmt 1              @ ../../M031BSP/Library/StdDriver/src/timer.c:270:31
	orrs	r0, r1
.Ltmp55:
	@DEBUG_VALUE: TIMER_GetModuleClock:timer <- [DW_OP_LLVM_entry_value 1] $r0
	.loc	4 0 31 is_stmt 0                @ ../../M031BSP/Library/StdDriver/src/timer.c:0:31
	ldr	r1, __arm_cp.1_3
	.loc	4 270 31                        @ ../../M031BSP/Library/StdDriver/src/timer.c:270:31
	cmp	r0, r1
	bne	.LBB1_11
.Ltmp56:
@ %bb.9:
	@DEBUG_VALUE: TIMER_GetModuleClock:timer <- [DW_OP_LLVM_entry_value 1] $r0
	@DEBUG_VALUE: TIMER_GetModuleClock:u32Src <- $r2
	.loc	4 271 20 is_stmt 1              @ ../../M031BSP/Library/StdDriver/src/timer.c:271:20
	bl	CLK_GetPCLK0Freq
.Ltmp57:
	.loc	4 277 1 epilogue_begin          @ ../../M031BSP/Library/StdDriver/src/timer.c:277:1
	pop	{r7, pc}
.Ltmp58:
.LBB1_10:
	@DEBUG_VALUE: TIMER_GetModuleClock:u32Src <- $r2
	@DEBUG_VALUE: TIMER_GetModuleClock:timer <- $r0
	.loc	4 276 13                        @ ../../M031BSP/Library/StdDriver/src/timer.c:276:13
	lsls	r0, r2, #2
.Ltmp59:
	@DEBUG_VALUE: TIMER_GetModuleClock:timer <- [DW_OP_LLVM_entry_value 1] $r0
	ldr	r1, __arm_cp.1_4
	ldr	r0, [r1, r0]
	.loc	4 277 1 epilogue_begin          @ ../../M031BSP/Library/StdDriver/src/timer.c:277:1
	pop	{r7, pc}
.Ltmp60:
.LBB1_11:
	@DEBUG_VALUE: TIMER_GetModuleClock:timer <- [DW_OP_LLVM_entry_value 1] $r0
	@DEBUG_VALUE: TIMER_GetModuleClock:u32Src <- $r2
	.loc	4 273 20                        @ ../../M031BSP/Library/StdDriver/src/timer.c:273:20
	bl	CLK_GetPCLK1Freq
.Ltmp61:
	.loc	4 277 1 epilogue_begin          @ ../../M031BSP/Library/StdDriver/src/timer.c:277:1
	pop	{r7, pc}
.Ltmp62:
	.p2align	2
@ %bb.12:
	.loc	4 0 1 is_stmt 0                 @ ../../M031BSP/Library/StdDriver/src/timer.c:0:1
__arm_cp.1_0:
	.long	1073742356                      @ 0x40000214
.Lcpi_end5:
	.size	__arm_cp.1_0, .Lcpi_end5-__arm_cp.1_0
__arm_cp.1_1:
	.long	1074069504                      @ 0x40050000
.Lcpi_end6:
	.size	__arm_cp.1_1, .Lcpi_end6-__arm_cp.1_1
__arm_cp.1_2:
	.long	1074073600                      @ 0x40051000
.Lcpi_end7:
	.size	__arm_cp.1_2, .Lcpi_end7-__arm_cp.1_2
__arm_cp.1_3:
	.long	1074069536                      @ 0x40050020
.Lcpi_end8:
	.size	__arm_cp.1_3, .Lcpi_end8-__arm_cp.1_3
__arm_cp.1_4:
	.long	.L__const.TIMER_GetModuleClock.au32Clk
.Lcpi_end9:
	.size	__arm_cp.1_4, .Lcpi_end9-__arm_cp.1_4
.Lfunc_end1:
	.size	TIMER_GetModuleClock, .Lfunc_end1-TIMER_GetModuleClock
	.cfi_endproc
	.cantunwind
	.fnend
                                        @ -- End function
	.section	.text.TIMER_Close,"ax",%progbits
	.hidden	TIMER_Close                     @ -- Begin function TIMER_Close
	.globl	TIMER_Close
	.p2align	1
	.type	TIMER_Close,%function
	.code	16                              @ @TIMER_Close
	.thumb_func
TIMER_Close:
.Lfunc_begin2:
	.loc	4 78 0 is_stmt 1                @ ../../M031BSP/Library/StdDriver/src/timer.c:78:0
	.fnstart
	.cfi_startproc
@ %bb.0:
	@DEBUG_VALUE: TIMER_Close:timer <- $r0
	movs	r1, #0
.Ltmp63:
	.loc	4 79 16 prologue_end            @ ../../M031BSP/Library/StdDriver/src/timer.c:79:16
	str	r1, [r0]
	.loc	4 80 19                         @ ../../M031BSP/Library/StdDriver/src/timer.c:80:19
	str	r1, [r0, #20]
	.loc	4 81 1                          @ ../../M031BSP/Library/StdDriver/src/timer.c:81:1
	bx	lr
.Ltmp64:
.Lfunc_end2:
	.size	TIMER_Close, .Lfunc_end2-TIMER_Close
	.cfi_endproc
	.cantunwind
	.fnend
                                        @ -- End function
	.section	.text.TIMER_Delay,"ax",%progbits
	.hidden	TIMER_Delay                     @ -- Begin function TIMER_Delay
	.globl	TIMER_Delay
	.p2align	2
	.type	TIMER_Delay,%function
	.code	16                              @ @TIMER_Delay
	.thumb_func
TIMER_Delay:
.Lfunc_begin3:
	.loc	4 98 0                          @ ../../M031BSP/Library/StdDriver/src/timer.c:98:0
	.fnstart
	.cfi_startproc
@ %bb.0:
	@DEBUG_VALUE: TIMER_Delay:timer <- $r0
	@DEBUG_VALUE: TIMER_Delay:u32Usec <- $r1
	.save	{r4, r5, r6, r7, lr}
	push	{r4, r5, r6, r7, lr}
	.cfi_def_cfa_offset 20
	.cfi_offset lr, -4
	.cfi_offset r7, -8
	.cfi_offset r6, -12
	.cfi_offset r5, -16
	.cfi_offset r4, -20
	.pad	#12
	sub	sp, #12
	.cfi_def_cfa_offset 32
	mov	r5, r1
.Ltmp65:
	@DEBUG_VALUE: TIMER_Delay:u32Usec <- $r5
	mov	r4, r0
.Ltmp66:
	@DEBUG_VALUE: TIMER_Delay:timer <- $r4
	ldr	r0, __arm_cp.3_0
	ldr	r1, __arm_cp.3_1
.Ltmp67:
	@DEBUG_VALUE: TIMER_GetModuleClock:timer <- $r4
	.loc	4 259 8 prologue_end            @ ../../M031BSP/Library/StdDriver/src/timer.c:259:8
	cmp	r4, r1
	beq	.LBB3_4
.Ltmp68:
@ %bb.1:
	@DEBUG_VALUE: TIMER_GetModuleClock:timer <- $r4
	@DEBUG_VALUE: TIMER_Delay:timer <- $r4
	@DEBUG_VALUE: TIMER_Delay:u32Usec <- $r5
	.loc	4 0 0 is_stmt 0                 @ ../../M031BSP/Library/StdDriver/src/timer.c:0:0
	ldr	r0, [r0]
	ldr	r1, __arm_cp.3_2
.Ltmp69:
	.loc	4 261 13 is_stmt 1              @ ../../M031BSP/Library/StdDriver/src/timer.c:261:13
	cmp	r4, r1
	beq	.LBB3_5
.Ltmp70:
@ %bb.2:
	@DEBUG_VALUE: TIMER_GetModuleClock:timer <- $r4
	@DEBUG_VALUE: TIMER_Delay:timer <- $r4
	@DEBUG_VALUE: TIMER_Delay:u32Usec <- $r5
	.loc	4 0 13 is_stmt 0                @ ../../M031BSP/Library/StdDriver/src/timer.c:0:13
	ldr	r1, __arm_cp.3_3
	.loc	4 261 13                        @ ../../M031BSP/Library/StdDriver/src/timer.c:261:13
	cmp	r4, r1
	bne	.LBB3_6
.Ltmp71:
@ %bb.3:
	@DEBUG_VALUE: TIMER_GetModuleClock:timer <- $r4
	@DEBUG_VALUE: TIMER_Delay:timer <- $r4
	@DEBUG_VALUE: TIMER_Delay:u32Usec <- $r5
	.loc	4 262 59 is_stmt 1              @ ../../M031BSP/Library/StdDriver/src/timer.c:262:59
	lsrs	r0, r0, #12
.Ltmp72:
	@DEBUG_VALUE: TIMER_GetModuleClock:u32Src <- [DW_OP_constu 7, DW_OP_and, DW_OP_stack_value] $r0
	.loc	4 0 59 is_stmt 0                @ ../../M031BSP/Library/StdDriver/src/timer.c:0:59
	b	.LBB3_7
.Ltmp73:
.LBB3_4:
	@DEBUG_VALUE: TIMER_GetModuleClock:timer <- $r4
	@DEBUG_VALUE: TIMER_Delay:timer <- $r4
	@DEBUG_VALUE: TIMER_Delay:u32Usec <- $r5
	.loc	4 260 24 is_stmt 1              @ ../../M031BSP/Library/StdDriver/src/timer.c:260:24
	ldr	r0, [r0]
	.loc	4 260 59 is_stmt 0              @ ../../M031BSP/Library/StdDriver/src/timer.c:260:59
	lsrs	r0, r0, #8
.Ltmp74:
	@DEBUG_VALUE: TIMER_GetModuleClock:u32Src <- [DW_OP_constu 7, DW_OP_and, DW_OP_stack_value] $r0
	.loc	4 0 59                          @ ../../M031BSP/Library/StdDriver/src/timer.c:0:59
	b	.LBB3_7
.Ltmp75:
.LBB3_5:
	@DEBUG_VALUE: TIMER_GetModuleClock:timer <- $r4
	@DEBUG_VALUE: TIMER_Delay:timer <- $r4
	@DEBUG_VALUE: TIMER_Delay:u32Usec <- $r5
	.loc	4 264 59 is_stmt 1              @ ../../M031BSP/Library/StdDriver/src/timer.c:264:59
	lsrs	r0, r0, #16
.Ltmp76:
	@DEBUG_VALUE: TIMER_GetModuleClock:u32Src <- [DW_OP_constu 7, DW_OP_and, DW_OP_stack_value] $r0
	.loc	4 0 59 is_stmt 0                @ ../../M031BSP/Library/StdDriver/src/timer.c:0:59
	b	.LBB3_7
.Ltmp77:
.LBB3_6:
	@DEBUG_VALUE: TIMER_GetModuleClock:timer <- $r4
	@DEBUG_VALUE: TIMER_Delay:timer <- $r4
	@DEBUG_VALUE: TIMER_Delay:u32Usec <- $r5
	.loc	4 266 59 is_stmt 1              @ ../../M031BSP/Library/StdDriver/src/timer.c:266:59
	lsrs	r0, r0, #20
.Ltmp78:
	@DEBUG_VALUE: TIMER_GetModuleClock:u32Src <- [DW_OP_constu 7, DW_OP_and, DW_OP_stack_value] $r0
.LBB3_7:
	@DEBUG_VALUE: TIMER_GetModuleClock:u32Src <- [DW_OP_constu 7, DW_OP_and, DW_OP_stack_value] $r0
	@DEBUG_VALUE: TIMER_GetModuleClock:timer <- $r4
	@DEBUG_VALUE: TIMER_Delay:timer <- $r4
	@DEBUG_VALUE: TIMER_Delay:u32Usec <- $r5
	.loc	4 0 59 is_stmt 0                @ ../../M031BSP/Library/StdDriver/src/timer.c:0:59
	movs	r1, #7
	str	r1, [sp, #4]                    @ 4-byte Spill
	ands	r0, r1
.Ltmp79:
	@DEBUG_VALUE: TIMER_GetModuleClock:u32Src <- $r0
	.loc	4 268 8 is_stmt 1               @ ../../M031BSP/Library/StdDriver/src/timer.c:268:8
	cmp	r0, #2
	bne	.LBB3_10
.Ltmp80:
@ %bb.8:
	@DEBUG_VALUE: TIMER_GetModuleClock:u32Src <- $r0
	@DEBUG_VALUE: TIMER_GetModuleClock:timer <- $r4
	@DEBUG_VALUE: TIMER_Delay:timer <- $r4
	@DEBUG_VALUE: TIMER_Delay:u32Usec <- $r5
	.loc	4 0 8 is_stmt 0                 @ ../../M031BSP/Library/StdDriver/src/timer.c:0:8
	movs	r0, #32
.Ltmp81:
	.loc	4 270 31 is_stmt 1              @ ../../M031BSP/Library/StdDriver/src/timer.c:270:31
	orrs	r0, r4
	ldr	r1, __arm_cp.3_3
	cmp	r0, r1
	bne	.LBB3_11
.Ltmp82:
@ %bb.9:
	@DEBUG_VALUE: TIMER_GetModuleClock:timer <- $r4
	@DEBUG_VALUE: TIMER_Delay:timer <- $r4
	@DEBUG_VALUE: TIMER_Delay:u32Usec <- $r5
	.loc	4 271 20                        @ ../../M031BSP/Library/StdDriver/src/timer.c:271:20
	bl	CLK_GetPCLK0Freq
.Ltmp83:
	.loc	4 0 20 is_stmt 0                @ ../../M031BSP/Library/StdDriver/src/timer.c:0:20
	b	.LBB3_12
.Ltmp84:
.LBB3_10:
	@DEBUG_VALUE: TIMER_GetModuleClock:u32Src <- $r0
	@DEBUG_VALUE: TIMER_GetModuleClock:timer <- $r4
	@DEBUG_VALUE: TIMER_Delay:timer <- $r4
	@DEBUG_VALUE: TIMER_Delay:u32Usec <- $r5
	.loc	4 276 13 is_stmt 1              @ ../../M031BSP/Library/StdDriver/src/timer.c:276:13
	lsls	r0, r0, #2
.Ltmp85:
	ldr	r1, __arm_cp.3_4
	ldr	r6, [r1, r0]
	b	.LBB3_13
.Ltmp86:
.LBB3_11:
	@DEBUG_VALUE: TIMER_GetModuleClock:timer <- $r4
	@DEBUG_VALUE: TIMER_Delay:timer <- $r4
	@DEBUG_VALUE: TIMER_Delay:u32Usec <- $r5
	.loc	4 273 20                        @ ../../M031BSP/Library/StdDriver/src/timer.c:273:20
	bl	CLK_GetPCLK1Freq
.Ltmp87:
.LBB3_12:
	@DEBUG_VALUE: TIMER_GetModuleClock:timer <- $r4
	@DEBUG_VALUE: TIMER_Delay:timer <- $r4
	@DEBUG_VALUE: TIMER_Delay:u32Usec <- $r5
	.loc	4 0 0 is_stmt 0                 @ ../../M031BSP/Library/StdDriver/src/timer.c:0:0
	mov	r6, r0
.Ltmp88:
.LBB3_13:
	@DEBUG_VALUE: TIMER_Delay:timer <- $r4
	@DEBUG_VALUE: TIMER_Delay:u32Usec <- $r5
	@DEBUG_VALUE: TIMER_Delay:u32Clk <- $r6
	@DEBUG_VALUE: TIMER_Delay:u32Prescale <- 0
	@DEBUG_VALUE: TIMER_Delay:i <- 0
	movs	r0, #0
	.loc	4 104 16 is_stmt 1              @ ../../M031BSP/Library/StdDriver/src/timer.c:104:16
	str	r0, [r4]
	str	r0, [sp, #8]                    @ 4-byte Spill
	.loc	4 105 19                        @ ../../M031BSP/Library/StdDriver/src/timer.c:105:19
	str	r0, [r4, #20]
	ldr	r1, __arm_cp.3_5
	.loc	4 107 8                         @ ../../M031BSP/Library/StdDriver/src/timer.c:107:8
	cmp	r6, r1
	bhi	.LBB3_19
.Ltmp89:
@ %bb.14:
	@DEBUG_VALUE: TIMER_Delay:i <- 0
	@DEBUG_VALUE: TIMER_Delay:u32Prescale <- 0
	@DEBUG_VALUE: TIMER_Delay:u32Clk <- $r6
	@DEBUG_VALUE: TIMER_Delay:timer <- $r4
	@DEBUG_VALUE: TIMER_Delay:u32Usec <- $r5
	.loc	4 0 8 is_stmt 0                 @ ../../M031BSP/Library/StdDriver/src/timer.c:0:8
	movs	r0, #125
	lsls	r7, r0, #3
.Ltmp90:
	.loc	4 109 12 is_stmt 1              @ ../../M031BSP/Library/StdDriver/src/timer.c:109:12
	cmp	r5, r7
	bhi	.LBB3_16
.Ltmp91:
@ %bb.15:
	@DEBUG_VALUE: TIMER_Delay:i <- 0
	@DEBUG_VALUE: TIMER_Delay:u32Prescale <- 0
	@DEBUG_VALUE: TIMER_Delay:u32Clk <- $r6
	@DEBUG_VALUE: TIMER_Delay:timer <- $r4
	@DEBUG_VALUE: TIMER_Delay:u32Usec <- $r5
	.loc	4 0 12 is_stmt 0                @ ../../M031BSP/Library/StdDriver/src/timer.c:0:12
	mov	r5, r7
.Ltmp92:
	@DEBUG_VALUE: TIMER_Delay:u32Usec <- [DW_OP_LLVM_entry_value 1] $r1
.LBB3_16:
	@DEBUG_VALUE: TIMER_Delay:i <- 0
	@DEBUG_VALUE: TIMER_Delay:u32Prescale <- 0
	@DEBUG_VALUE: TIMER_Delay:u32Clk <- $r6
	@DEBUG_VALUE: TIMER_Delay:timer <- $r4
	@DEBUG_VALUE: TIMER_Delay:u32Usec <- $r5
	ldr	r0, __arm_cp.3_5
	.loc	4 111 12 is_stmt 1              @ ../../M031BSP/Library/StdDriver/src/timer.c:111:12
	cmp	r5, r0
	blo	.LBB3_18
.Ltmp93:
@ %bb.17:
	@DEBUG_VALUE: TIMER_Delay:i <- 0
	@DEBUG_VALUE: TIMER_Delay:u32Prescale <- 0
	@DEBUG_VALUE: TIMER_Delay:u32Clk <- $r6
	@DEBUG_VALUE: TIMER_Delay:timer <- $r4
	@DEBUG_VALUE: TIMER_Delay:u32Usec <- $r5
	.loc	4 0 12 is_stmt 0                @ ../../M031BSP/Library/StdDriver/src/timer.c:0:12
	mov	r5, r0
.Ltmp94:
.LBB3_18:
	@DEBUG_VALUE: TIMER_Delay:i <- 0
	@DEBUG_VALUE: TIMER_Delay:u32Prescale <- 0
	@DEBUG_VALUE: TIMER_Delay:u32Clk <- $r6
	@DEBUG_VALUE: TIMER_Delay:timer <- $r4
	@DEBUG_VALUE: TIMER_Delay:u32Usec <- $r5
	@DEBUG_VALUE: TIMER_Delay:u32Prescale <- 0
	ldr	r0, __arm_cp.3_6
.Ltmp95:
	.loc	4 125 37 is_stmt 1              @ ../../M031BSP/Library/StdDriver/src/timer.c:125:37
	mov	r1, r6
	bl	__aeabi_uidiv
.Ltmp96:
	mov	r1, r0
.Ltmp97:
	@DEBUG_VALUE: TIMER_Delay:u32NsecPerTick <- $r1
	.loc	4 126 28                        @ ../../M031BSP/Library/StdDriver/src/timer.c:126:28
	muls	r7, r5, r7
	.loc	4 126 36 is_stmt 0              @ ../../M031BSP/Library/StdDriver/src/timer.c:126:36
	mov	r0, r7
	bl	__aeabi_uidiv
.Ltmp98:
	@DEBUG_VALUE: TIMER_Delay:u32Cmpr <- $r0
	.loc	4 0 36                          @ ../../M031BSP/Library/StdDriver/src/timer.c:0:36
	b	.LBB3_25
.Ltmp99:
.LBB3_19:
	@DEBUG_VALUE: TIMER_Delay:i <- 0
	@DEBUG_VALUE: TIMER_Delay:u32Prescale <- 0
	@DEBUG_VALUE: TIMER_Delay:u32Clk <- $r6
	@DEBUG_VALUE: TIMER_Delay:timer <- $r4
	@DEBUG_VALUE: TIMER_Delay:u32Usec <- $r5
	.loc	4 116 12 is_stmt 1              @ ../../M031BSP/Library/StdDriver/src/timer.c:116:12
	cmp	r5, #100
	bhi	.LBB3_21
.Ltmp100:
@ %bb.20:
	@DEBUG_VALUE: TIMER_Delay:i <- 0
	@DEBUG_VALUE: TIMER_Delay:u32Prescale <- 0
	@DEBUG_VALUE: TIMER_Delay:u32Clk <- $r6
	@DEBUG_VALUE: TIMER_Delay:timer <- $r4
	@DEBUG_VALUE: TIMER_Delay:u32Usec <- $r5
	.loc	4 0 12 is_stmt 0                @ ../../M031BSP/Library/StdDriver/src/timer.c:0:12
	movs	r5, #100
.Ltmp101:
	@DEBUG_VALUE: TIMER_Delay:u32Usec <- [DW_OP_LLVM_entry_value 1] $r1
.LBB3_21:
	@DEBUG_VALUE: TIMER_Delay:i <- 0
	@DEBUG_VALUE: TIMER_Delay:u32Prescale <- 0
	@DEBUG_VALUE: TIMER_Delay:u32Clk <- $r6
	@DEBUG_VALUE: TIMER_Delay:timer <- $r4
	@DEBUG_VALUE: TIMER_Delay:u32Usec <- $r5
	.loc	4 118 12 is_stmt 1              @ ../../M031BSP/Library/StdDriver/src/timer.c:118:12
	cmp	r5, r1
	blo	.LBB3_23
.Ltmp102:
@ %bb.22:
	@DEBUG_VALUE: TIMER_Delay:i <- 0
	@DEBUG_VALUE: TIMER_Delay:u32Prescale <- 0
	@DEBUG_VALUE: TIMER_Delay:u32Clk <- $r6
	@DEBUG_VALUE: TIMER_Delay:timer <- $r4
	@DEBUG_VALUE: TIMER_Delay:u32Usec <- $r5
	.loc	4 0 12 is_stmt 0                @ ../../M031BSP/Library/StdDriver/src/timer.c:0:12
	mov	r5, r1
.Ltmp103:
.LBB3_23:
	@DEBUG_VALUE: TIMER_Delay:i <- 0
	@DEBUG_VALUE: TIMER_Delay:u32Prescale <- 0
	@DEBUG_VALUE: TIMER_Delay:u32Clk <- $r6
	@DEBUG_VALUE: TIMER_Delay:timer <- $r4
	@DEBUG_VALUE: TIMER_Delay:u32Usec <- $r5
	.loc	4 130 37 is_stmt 1              @ ../../M031BSP/Library/StdDriver/src/timer.c:130:37
	mov	r0, r6
	bl	__aeabi_uidiv
.Ltmp104:
	.loc	4 130 27 is_stmt 0              @ ../../M031BSP/Library/StdDriver/src/timer.c:130:27
	muls	r0, r5, r0
.Ltmp105:
	@DEBUG_VALUE: TIMER_Delay:u32Cmpr <- $r0
	@DEBUG_VALUE: TIMER_Delay:u32Prescale <- [DW_OP_constu 24, DW_OP_shr, DW_OP_stack_value] $r0
	.loc	4 131 32 is_stmt 1              @ ../../M031BSP/Library/StdDriver/src/timer.c:131:32
	lsrs	r5, r0, #24
.Ltmp106:
	.loc	4 132 13                        @ ../../M031BSP/Library/StdDriver/src/timer.c:132:13
	beq	.LBB3_25
.Ltmp107:
@ %bb.24:
	@DEBUG_VALUE: TIMER_Delay:u32Prescale <- [DW_OP_constu 24, DW_OP_shr, DW_OP_stack_value] $r0
	@DEBUG_VALUE: TIMER_Delay:u32Cmpr <- $r0
	@DEBUG_VALUE: TIMER_Delay:i <- 0
	@DEBUG_VALUE: TIMER_Delay:u32Clk <- $r6
	@DEBUG_VALUE: TIMER_Delay:timer <- $r4
	@DEBUG_VALUE: TIMER_Delay:u32Prescale <- $r5
	.loc	4 133 46                        @ ../../M031BSP/Library/StdDriver/src/timer.c:133:46
	adds	r1, r5, #1
	.loc	4 133 31 is_stmt 0              @ ../../M031BSP/Library/StdDriver/src/timer.c:133:31
	bl	__aeabi_uidiv
.Ltmp108:
	@DEBUG_VALUE: TIMER_Delay:u32Cmpr <- $r0
	.loc	4 0 31                          @ ../../M031BSP/Library/StdDriver/src/timer.c:0:31
	str	r5, [sp, #8]                    @ 4-byte Spill
.Ltmp109:
	@DEBUG_VALUE: TIMER_Delay:u32Prescale <- [DW_OP_plus_uconst 8] [$sp+0]
	@DEBUG_VALUE: TIMER_Delay:u32Prescale <- [DW_OP_plus_uconst 8] [$sp+0]
.LBB3_25:
	@DEBUG_VALUE: TIMER_Delay:u32Cmpr <- $r0
	@DEBUG_VALUE: TIMER_Delay:i <- 0
	@DEBUG_VALUE: TIMER_Delay:u32Clk <- $r6
	@DEBUG_VALUE: TIMER_Delay:timer <- $r4
	@DEBUG_VALUE: TIMER_Delay:u32Prescale <- [DW_OP_plus_uconst 8] [$sp+0]
	@DEBUG_VALUE: TIMER_Delay:u32Cmpr <- $r0
	.loc	4 136 16 is_stmt 1              @ ../../M031BSP/Library/StdDriver/src/timer.c:136:16
	str	r0, [r4, #4]
	movs	r0, #1
.Ltmp110:
	.loc	4 0 16 is_stmt 0                @ ../../M031BSP/Library/StdDriver/src/timer.c:0:16
	str	r0, [sp]                        @ 4-byte Spill
	lsls	r0, r0, #30
	.loc	4 137 59 is_stmt 1              @ ../../M031BSP/Library/StdDriver/src/timer.c:137:59
	ldr	r1, [sp, #8]                    @ 4-byte Reload
.Ltmp111:
	@DEBUG_VALUE: TIMER_Delay:u32Prescale <- $r1
	adds	r0, r1, r0
.Ltmp112:
	@DEBUG_VALUE: TIMER_Delay:u32Prescale <- [DW_OP_plus_uconst 8] [$sp+0]
	.loc	4 137 16 is_stmt 0              @ ../../M031BSP/Library/StdDriver/src/timer.c:137:16
	str	r0, [r4]
.Ltmp113:
	.loc	4 142 21 is_stmt 1              @ ../../M031BSP/Library/StdDriver/src/timer.c:142:21
	ldr	r7, __arm_cp.3_7
	ldr	r5, [r7]
	.loc	4 142 37 is_stmt 0              @ ../../M031BSP/Library/StdDriver/src/timer.c:142:37
	mov	r0, r5
	mov	r1, r6
	bl	__aeabi_uidiv
.Ltmp114:
	.loc	4 142 47                        @ ../../M031BSP/Library/StdDriver/src/timer.c:142:47
	adds	r1, r0, #1
.Ltmp115:
	@DEBUG_VALUE: TIMER_Delay:u32Delay <- $r1
	.loc	4 142 5                         @ ../../M031BSP/Library/StdDriver/src/timer.c:142:5
	bhs	.LBB3_33
.Ltmp116:
@ %bb.26:
	@DEBUG_VALUE: TIMER_Delay:u32Delay <- $r1
	@DEBUG_VALUE: TIMER_Delay:u32Prescale <- [DW_OP_plus_uconst 8] [$sp+0]
	@DEBUG_VALUE: TIMER_Delay:i <- 0
	@DEBUG_VALUE: TIMER_Delay:u32Clk <- $r6
	@DEBUG_VALUE: TIMER_Delay:timer <- $r4
	.loc	4 0 5                           @ ../../M031BSP/Library/StdDriver/src/timer.c:0:5
	movs	r2, #3
	.loc	4 142 5                         @ ../../M031BSP/Library/StdDriver/src/timer.c:142:5
	ands	r2, r1
	beq	.LBB3_30
.Ltmp117:
@ %bb.27:
	@DEBUG_VALUE: TIMER_Delay:u32Delay <- $r1
	@DEBUG_VALUE: TIMER_Delay:u32Prescale <- [DW_OP_plus_uconst 8] [$sp+0]
	@DEBUG_VALUE: TIMER_Delay:i <- 0
	@DEBUG_VALUE: TIMER_Delay:u32Clk <- $r6
	@DEBUG_VALUE: TIMER_Delay:timer <- $r4
	@DEBUG_VALUE: TIMER_Delay:u32Delay <- undef
	.loc	4 144 9 is_stmt 1               @ ../../M031BSP/Library/StdDriver/src/timer.c:144:9
	nop
.Ltmp118:
	.loc	4 142 5                         @ ../../M031BSP/Library/StdDriver/src/timer.c:142:5
	cmp	r2, #1
	mov	r1, r0
	beq	.LBB3_30
.Ltmp119:
@ %bb.28:
	@DEBUG_VALUE: TIMER_Delay:u32Prescale <- [DW_OP_plus_uconst 8] [$sp+0]
	@DEBUG_VALUE: TIMER_Delay:i <- 0
	@DEBUG_VALUE: TIMER_Delay:u32Clk <- $r6
	@DEBUG_VALUE: TIMER_Delay:timer <- $r4
	.loc	4 144 9                         @ ../../M031BSP/Library/StdDriver/src/timer.c:144:9
	nop
.Ltmp120:
	@DEBUG_VALUE: TIMER_Delay:u32Delay <- undef
	.loc	4 142 5                         @ ../../M031BSP/Library/StdDriver/src/timer.c:142:5
	cmp	r2, #2
	bne	.LBB3_55
.Ltmp121:
@ %bb.29:
	@DEBUG_VALUE: TIMER_Delay:u32Prescale <- [DW_OP_plus_uconst 8] [$sp+0]
	@DEBUG_VALUE: TIMER_Delay:i <- 0
	@DEBUG_VALUE: TIMER_Delay:u32Clk <- $r6
	@DEBUG_VALUE: TIMER_Delay:timer <- $r4
	.loc	4 0 5 is_stmt 0                 @ ../../M031BSP/Library/StdDriver/src/timer.c:0:5
	subs	r1, r0, #1
.Ltmp122:
.LBB3_30:
	@DEBUG_VALUE: TIMER_Delay:u32Prescale <- [DW_OP_plus_uconst 8] [$sp+0]
	@DEBUG_VALUE: TIMER_Delay:i <- 0
	@DEBUG_VALUE: TIMER_Delay:u32Clk <- $r6
	@DEBUG_VALUE: TIMER_Delay:timer <- $r4
	.loc	4 142 5                         @ ../../M031BSP/Library/StdDriver/src/timer.c:142:5
	cmp	r0, #3
	blo	.LBB3_32
.Ltmp123:
.LBB3_31:                               @ =>This Inner Loop Header: Depth=1
	@DEBUG_VALUE: TIMER_Delay:u32Prescale <- [DW_OP_plus_uconst 8] [$sp+0]
	@DEBUG_VALUE: TIMER_Delay:i <- 0
	@DEBUG_VALUE: TIMER_Delay:u32Clk <- $r6
	@DEBUG_VALUE: TIMER_Delay:timer <- $r4
	@DEBUG_VALUE: TIMER_Delay:u32Delay <- $r1
	.loc	4 144 9 is_stmt 1               @ ../../M031BSP/Library/StdDriver/src/timer.c:144:9
	nop
.Ltmp124:
	@DEBUG_VALUE: TIMER_Delay:u32Delay <- [DW_OP_constu 1, DW_OP_minus, DW_OP_stack_value] $r1
	nop
.Ltmp125:
	@DEBUG_VALUE: TIMER_Delay:u32Delay <- [DW_OP_constu 2, DW_OP_minus, DW_OP_stack_value] $r1
	nop
.Ltmp126:
	@DEBUG_VALUE: TIMER_Delay:u32Delay <- [DW_OP_constu 3, DW_OP_minus, DW_OP_stack_value] $r1
	nop
.Ltmp127:
	.loc	4 142 78                        @ ../../M031BSP/Library/StdDriver/src/timer.c:142:78
	subs	r1, r1, #4
.Ltmp128:
	@DEBUG_VALUE: TIMER_Delay:u32Delay <- $r1
	.loc	4 142 5 is_stmt 0               @ ../../M031BSP/Library/StdDriver/src/timer.c:142:5
	bne	.LBB3_31
.Ltmp129:
.LBB3_32:
	@DEBUG_VALUE: TIMER_Delay:u32Prescale <- [DW_OP_plus_uconst 8] [$sp+0]
	@DEBUG_VALUE: TIMER_Delay:i <- 0
	@DEBUG_VALUE: TIMER_Delay:u32Clk <- $r6
	@DEBUG_VALUE: TIMER_Delay:timer <- $r4
	.loc	4 150 17 is_stmt 1              @ ../../M031BSP/Library/StdDriver/src/timer.c:150:17
	ldr	r5, [r7]
.Ltmp130:
.LBB3_33:
	@DEBUG_VALUE: TIMER_Delay:u32Prescale <- [DW_OP_plus_uconst 8] [$sp+0]
	@DEBUG_VALUE: TIMER_Delay:i <- 0
	@DEBUG_VALUE: TIMER_Delay:u32Clk <- $r6
	@DEBUG_VALUE: TIMER_Delay:timer <- $r4
	@DEBUG_VALUE: TIMER_GetModuleClock:timer <- $r4
	@DEBUG_VALUE: TIMER_GetModuleClock:au32Clk <- undef
	.loc	4 259 8                         @ ../../M031BSP/Library/StdDriver/src/timer.c:259:8
	ldr	r0, __arm_cp.3_1
	cmp	r4, r0
	beq	.LBB3_37
.Ltmp131:
@ %bb.34:
	@DEBUG_VALUE: TIMER_GetModuleClock:timer <- $r4
	@DEBUG_VALUE: TIMER_Delay:u32Prescale <- [DW_OP_plus_uconst 8] [$sp+0]
	@DEBUG_VALUE: TIMER_Delay:i <- 0
	@DEBUG_VALUE: TIMER_Delay:u32Clk <- $r6
	@DEBUG_VALUE: TIMER_Delay:timer <- $r4
	.loc	4 0 0 is_stmt 0                 @ ../../M031BSP/Library/StdDriver/src/timer.c:0:0
	ldr	r0, __arm_cp.3_0
	ldr	r0, [r0]
	ldr	r1, __arm_cp.3_2
.Ltmp132:
	.loc	4 261 13 is_stmt 1              @ ../../M031BSP/Library/StdDriver/src/timer.c:261:13
	cmp	r4, r1
	beq	.LBB3_38
.Ltmp133:
@ %bb.35:
	@DEBUG_VALUE: TIMER_GetModuleClock:timer <- $r4
	@DEBUG_VALUE: TIMER_Delay:u32Prescale <- [DW_OP_plus_uconst 8] [$sp+0]
	@DEBUG_VALUE: TIMER_Delay:i <- 0
	@DEBUG_VALUE: TIMER_Delay:u32Clk <- $r6
	@DEBUG_VALUE: TIMER_Delay:timer <- $r4
	.loc	4 0 13 is_stmt 0                @ ../../M031BSP/Library/StdDriver/src/timer.c:0:13
	ldr	r1, __arm_cp.3_3
	.loc	4 261 13                        @ ../../M031BSP/Library/StdDriver/src/timer.c:261:13
	cmp	r4, r1
	bne	.LBB3_39
.Ltmp134:
@ %bb.36:
	@DEBUG_VALUE: TIMER_GetModuleClock:timer <- $r4
	@DEBUG_VALUE: TIMER_Delay:u32Prescale <- [DW_OP_plus_uconst 8] [$sp+0]
	@DEBUG_VALUE: TIMER_Delay:i <- 0
	@DEBUG_VALUE: TIMER_Delay:u32Clk <- $r6
	@DEBUG_VALUE: TIMER_Delay:timer <- $r4
	.loc	4 262 59 is_stmt 1              @ ../../M031BSP/Library/StdDriver/src/timer.c:262:59
	lsrs	r0, r0, #12
.Ltmp135:
	@DEBUG_VALUE: TIMER_GetModuleClock:u32Src <- [DW_OP_constu 7, DW_OP_and, DW_OP_stack_value] $r0
	.loc	4 0 59 is_stmt 0                @ ../../M031BSP/Library/StdDriver/src/timer.c:0:59
	b	.LBB3_40
.Ltmp136:
.LBB3_37:
	@DEBUG_VALUE: TIMER_GetModuleClock:timer <- $r4
	@DEBUG_VALUE: TIMER_Delay:u32Prescale <- [DW_OP_plus_uconst 8] [$sp+0]
	@DEBUG_VALUE: TIMER_Delay:i <- 0
	@DEBUG_VALUE: TIMER_Delay:u32Clk <- $r6
	@DEBUG_VALUE: TIMER_Delay:timer <- $r4
	.loc	4 260 24 is_stmt 1              @ ../../M031BSP/Library/StdDriver/src/timer.c:260:24
	ldr	r0, __arm_cp.3_0
	ldr	r0, [r0]
	.loc	4 260 59 is_stmt 0              @ ../../M031BSP/Library/StdDriver/src/timer.c:260:59
	lsrs	r0, r0, #8
.Ltmp137:
	@DEBUG_VALUE: TIMER_GetModuleClock:u32Src <- [DW_OP_constu 7, DW_OP_and, DW_OP_stack_value] $r0
	.loc	4 0 59                          @ ../../M031BSP/Library/StdDriver/src/timer.c:0:59
	b	.LBB3_40
.Ltmp138:
.LBB3_38:
	@DEBUG_VALUE: TIMER_GetModuleClock:timer <- $r4
	@DEBUG_VALUE: TIMER_Delay:u32Prescale <- [DW_OP_plus_uconst 8] [$sp+0]
	@DEBUG_VALUE: TIMER_Delay:i <- 0
	@DEBUG_VALUE: TIMER_Delay:u32Clk <- $r6
	@DEBUG_VALUE: TIMER_Delay:timer <- $r4
	.loc	4 264 59 is_stmt 1              @ ../../M031BSP/Library/StdDriver/src/timer.c:264:59
	lsrs	r0, r0, #16
.Ltmp139:
	@DEBUG_VALUE: TIMER_GetModuleClock:u32Src <- [DW_OP_constu 7, DW_OP_and, DW_OP_stack_value] $r0
	.loc	4 0 59 is_stmt 0                @ ../../M031BSP/Library/StdDriver/src/timer.c:0:59
	b	.LBB3_40
.Ltmp140:
.LBB3_39:
	@DEBUG_VALUE: TIMER_GetModuleClock:timer <- $r4
	@DEBUG_VALUE: TIMER_Delay:u32Prescale <- [DW_OP_plus_uconst 8] [$sp+0]
	@DEBUG_VALUE: TIMER_Delay:i <- 0
	@DEBUG_VALUE: TIMER_Delay:u32Clk <- $r6
	@DEBUG_VALUE: TIMER_Delay:timer <- $r4
	.loc	4 266 59 is_stmt 1              @ ../../M031BSP/Library/StdDriver/src/timer.c:266:59
	lsrs	r0, r0, #20
.Ltmp141:
	@DEBUG_VALUE: TIMER_GetModuleClock:u32Src <- [DW_OP_constu 7, DW_OP_and, DW_OP_stack_value] $r0
.LBB3_40:
	@DEBUG_VALUE: TIMER_GetModuleClock:u32Src <- [DW_OP_constu 7, DW_OP_and, DW_OP_stack_value] $r0
	@DEBUG_VALUE: TIMER_GetModuleClock:timer <- $r4
	@DEBUG_VALUE: TIMER_Delay:u32Prescale <- [DW_OP_plus_uconst 8] [$sp+0]
	@DEBUG_VALUE: TIMER_Delay:i <- 0
	@DEBUG_VALUE: TIMER_Delay:u32Clk <- $r6
	@DEBUG_VALUE: TIMER_Delay:timer <- $r4
	.loc	4 0 59 is_stmt 0                @ ../../M031BSP/Library/StdDriver/src/timer.c:0:59
	ldr	r1, [sp, #4]                    @ 4-byte Reload
	ands	r0, r1
.Ltmp142:
	@DEBUG_VALUE: TIMER_GetModuleClock:u32Src <- $r0
	.loc	4 268 8 is_stmt 1               @ ../../M031BSP/Library/StdDriver/src/timer.c:268:8
	cmp	r0, #2
	bne	.LBB3_43
.Ltmp143:
@ %bb.41:
	@DEBUG_VALUE: TIMER_GetModuleClock:u32Src <- $r0
	@DEBUG_VALUE: TIMER_GetModuleClock:timer <- $r4
	@DEBUG_VALUE: TIMER_Delay:u32Prescale <- [DW_OP_plus_uconst 8] [$sp+0]
	@DEBUG_VALUE: TIMER_Delay:i <- 0
	@DEBUG_VALUE: TIMER_Delay:u32Clk <- $r6
	@DEBUG_VALUE: TIMER_Delay:timer <- $r4
	.loc	4 0 8 is_stmt 0                 @ ../../M031BSP/Library/StdDriver/src/timer.c:0:8
	movs	r0, #32
.Ltmp144:
	.loc	4 270 31 is_stmt 1              @ ../../M031BSP/Library/StdDriver/src/timer.c:270:31
	orrs	r0, r4
	ldr	r1, __arm_cp.3_3
	cmp	r0, r1
	bne	.LBB3_44
.Ltmp145:
@ %bb.42:
	@DEBUG_VALUE: TIMER_GetModuleClock:timer <- $r4
	@DEBUG_VALUE: TIMER_Delay:u32Prescale <- [DW_OP_plus_uconst 8] [$sp+0]
	@DEBUG_VALUE: TIMER_Delay:i <- 0
	@DEBUG_VALUE: TIMER_Delay:u32Clk <- $r6
	@DEBUG_VALUE: TIMER_Delay:timer <- $r4
	.loc	4 271 20                        @ ../../M031BSP/Library/StdDriver/src/timer.c:271:20
	bl	CLK_GetPCLK0Freq
.Ltmp146:
	.loc	4 0 20 is_stmt 0                @ ../../M031BSP/Library/StdDriver/src/timer.c:0:20
	b	.LBB3_45
.Ltmp147:
.LBB3_43:
	@DEBUG_VALUE: TIMER_GetModuleClock:u32Src <- $r0
	@DEBUG_VALUE: TIMER_GetModuleClock:timer <- $r4
	@DEBUG_VALUE: TIMER_Delay:u32Prescale <- [DW_OP_plus_uconst 8] [$sp+0]
	@DEBUG_VALUE: TIMER_Delay:i <- 0
	@DEBUG_VALUE: TIMER_Delay:u32Clk <- $r6
	@DEBUG_VALUE: TIMER_Delay:timer <- $r4
	.loc	4 276 13 is_stmt 1              @ ../../M031BSP/Library/StdDriver/src/timer.c:276:13
	lsls	r0, r0, #2
.Ltmp148:
	ldr	r1, __arm_cp.3_4
	ldr	r1, [r1, r0]
	b	.LBB3_46
.Ltmp149:
.LBB3_44:
	@DEBUG_VALUE: TIMER_GetModuleClock:timer <- $r4
	@DEBUG_VALUE: TIMER_Delay:u32Prescale <- [DW_OP_plus_uconst 8] [$sp+0]
	@DEBUG_VALUE: TIMER_Delay:i <- 0
	@DEBUG_VALUE: TIMER_Delay:u32Clk <- $r6
	@DEBUG_VALUE: TIMER_Delay:timer <- $r4
	.loc	4 273 20                        @ ../../M031BSP/Library/StdDriver/src/timer.c:273:20
	bl	CLK_GetPCLK1Freq
.Ltmp150:
.LBB3_45:
	@DEBUG_VALUE: TIMER_GetModuleClock:timer <- $r4
	@DEBUG_VALUE: TIMER_Delay:u32Prescale <- [DW_OP_plus_uconst 8] [$sp+0]
	@DEBUG_VALUE: TIMER_Delay:i <- 0
	@DEBUG_VALUE: TIMER_Delay:u32Clk <- $r6
	@DEBUG_VALUE: TIMER_Delay:timer <- $r4
	.loc	4 0 0 is_stmt 0                 @ ../../M031BSP/Library/StdDriver/src/timer.c:0:0
	mov	r1, r0
.Ltmp151:
.LBB3_46:
	@DEBUG_VALUE: TIMER_Delay:u32Prescale <- [DW_OP_plus_uconst 8] [$sp+0]
	@DEBUG_VALUE: TIMER_Delay:i <- 0
	@DEBUG_VALUE: TIMER_Delay:u32Clk <- $r6
	@DEBUG_VALUE: TIMER_Delay:timer <- $r4
	.loc	4 150 33 is_stmt 1              @ ../../M031BSP/Library/StdDriver/src/timer.c:150:33
	mov	r0, r5
	bl	__aeabi_uidiv
.Ltmp152:
	@DEBUG_VALUE: TIMER_Delay:u32Delay <- undef
	.loc	4 151 22                        @ ../../M031BSP/Library/StdDriver/src/timer.c:151:22
	ldr	r1, [r4, #12]
.Ltmp153:
	@DEBUG_VALUE: TIMER_Delay:u32Cntr <- $r1
	@DEBUG_VALUE: TIMER_Delay:i <- 0
	.loc	4 153 18                        @ ../../M031BSP/Library/StdDriver/src/timer.c:153:18
	ldr	r2, [r4]
	.loc	4 153 5 is_stmt 0               @ ../../M031BSP/Library/StdDriver/src/timer.c:153:5
	lsls	r2, r2, #6
	bmi	.LBB3_48
.Ltmp154:
.LBB3_47:
	@DEBUG_VALUE: TIMER_Delay:u32Cntr <- $r1
	@DEBUG_VALUE: TIMER_Delay:u32Prescale <- [DW_OP_plus_uconst 8] [$sp+0]
	@DEBUG_VALUE: TIMER_Delay:u32Clk <- $r6
	@DEBUG_VALUE: TIMER_Delay:timer <- $r4
	.loc	4 0 5                           @ ../../M031BSP/Library/StdDriver/src/timer.c:0:5
	movs	r0, #0
	.loc	4 170 1 epilogue_begin is_stmt 1 @ ../../M031BSP/Library/StdDriver/src/timer.c:170:1
	add	sp, #12
	pop	{r4, r5, r6, r7, pc}
.Ltmp155:
.LBB3_48:
	@DEBUG_VALUE: TIMER_Delay:u32Cntr <- $r1
	@DEBUG_VALUE: TIMER_Delay:u32Prescale <- [DW_OP_plus_uconst 8] [$sp+0]
	@DEBUG_VALUE: TIMER_Delay:i <- 0
	@DEBUG_VALUE: TIMER_Delay:u32Clk <- $r6
	@DEBUG_VALUE: TIMER_Delay:timer <- $r4
	.loc	4 0 1 is_stmt 0                 @ ../../M031BSP/Library/StdDriver/src/timer.c:0:1
	ldr	r2, [sp, #8]                    @ 4-byte Reload
	adds	r2, r2, #1
	muls	r2, r0, r2
.Ltmp156:
	@DEBUG_VALUE: TIMER_Delay:u32Delay <- $r2
	ldr	r0, [sp]                        @ 4-byte Reload
	lsls	r0, r0, #25
	movs	r3, #0
	b	.LBB3_51
.Ltmp157:
.LBB3_49:                               @   in Loop: Header=BB3_51 Depth=1
	@DEBUG_VALUE: TIMER_Delay:i <- $r3
	@DEBUG_VALUE: TIMER_Delay:u32Delay <- $r2
	@DEBUG_VALUE: TIMER_Delay:u32Cntr <- $r1
	@DEBUG_VALUE: TIMER_Delay:u32Prescale <- [DW_OP_plus_uconst 8] [$sp+0]
	@DEBUG_VALUE: TIMER_Delay:u32Clk <- $r6
	@DEBUG_VALUE: TIMER_Delay:timer <- $r4
	@DEBUG_VALUE: TIMER_Delay:i <- 0
	.loc	4 166 30 is_stmt 1              @ ../../M031BSP/Library/StdDriver/src/timer.c:166:30
	ldr	r1, [r4, #12]
.Ltmp158:
	@DEBUG_VALUE: TIMER_Delay:u32Cntr <- $r1
	.loc	4 0 30 is_stmt 0                @ ../../M031BSP/Library/StdDriver/src/timer.c:0:30
	movs	r3, #0
.Ltmp159:
.LBB3_50:                               @   in Loop: Header=BB3_51 Depth=1
	@DEBUG_VALUE: TIMER_Delay:u32Delay <- $r2
	@DEBUG_VALUE: TIMER_Delay:u32Cntr <- $r1
	@DEBUG_VALUE: TIMER_Delay:u32Prescale <- [DW_OP_plus_uconst 8] [$sp+0]
	@DEBUG_VALUE: TIMER_Delay:u32Clk <- $r6
	@DEBUG_VALUE: TIMER_Delay:timer <- $r4
	@DEBUG_VALUE: TIMER_Delay:i <- $r3
	@DEBUG_VALUE: TIMER_Delay:u32Cntr <- $r1
	.loc	4 153 18 is_stmt 1              @ ../../M031BSP/Library/StdDriver/src/timer.c:153:18
	ldr	r5, [r4]
	.loc	4 153 5 is_stmt 0               @ ../../M031BSP/Library/StdDriver/src/timer.c:153:5
	tst	r5, r0
	beq	.LBB3_47
.Ltmp160:
.LBB3_51:                               @ =>This Inner Loop Header: Depth=1
	@DEBUG_VALUE: TIMER_Delay:u32Delay <- $r2
	@DEBUG_VALUE: TIMER_Delay:u32Cntr <- $r1
	@DEBUG_VALUE: TIMER_Delay:u32Prescale <- [DW_OP_plus_uconst 8] [$sp+0]
	@DEBUG_VALUE: TIMER_Delay:u32Clk <- $r6
	@DEBUG_VALUE: TIMER_Delay:timer <- $r4
	@DEBUG_VALUE: TIMER_Delay:i <- $r3
	@DEBUG_VALUE: TIMER_Delay:u32Cntr <- $r1
	.loc	4 156 30 is_stmt 1              @ ../../M031BSP/Library/StdDriver/src/timer.c:156:30
	ldr	r5, [r4, #12]
.Ltmp161:
	.loc	4 156 12 is_stmt 0              @ ../../M031BSP/Library/StdDriver/src/timer.c:156:12
	cmp	r1, r5
	bne	.LBB3_49
.Ltmp162:
@ %bb.52:                               @   in Loop: Header=BB3_51 Depth=1
	@DEBUG_VALUE: TIMER_Delay:i <- $r3
	@DEBUG_VALUE: TIMER_Delay:u32Delay <- $r2
	@DEBUG_VALUE: TIMER_Delay:u32Cntr <- $r1
	@DEBUG_VALUE: TIMER_Delay:u32Prescale <- [DW_OP_plus_uconst 8] [$sp+0]
	@DEBUG_VALUE: TIMER_Delay:u32Clk <- $r6
	@DEBUG_VALUE: TIMER_Delay:timer <- $r4
	@DEBUG_VALUE: TIMER_Delay:i <- undef
	.loc	4 158 16 is_stmt 1              @ ../../M031BSP/Library/StdDriver/src/timer.c:158:16
	cmp	r3, r2
	bhi	.LBB3_54
.Ltmp163:
@ %bb.53:                               @   in Loop: Header=BB3_51 Depth=1
	@DEBUG_VALUE: TIMER_Delay:u32Delay <- $r2
	@DEBUG_VALUE: TIMER_Delay:u32Cntr <- $r1
	@DEBUG_VALUE: TIMER_Delay:u32Prescale <- [DW_OP_plus_uconst 8] [$sp+0]
	@DEBUG_VALUE: TIMER_Delay:u32Clk <- $r6
	@DEBUG_VALUE: TIMER_Delay:timer <- $r4
	.loc	4 0 16 is_stmt 0                @ ../../M031BSP/Library/StdDriver/src/timer.c:0:16
	adds	r3, r3, #1
.Ltmp164:
	@DEBUG_VALUE: TIMER_Delay:i <- $r3
	b	.LBB3_50
.Ltmp165:
.LBB3_54:
	@DEBUG_VALUE: TIMER_Delay:u32Delay <- $r2
	@DEBUG_VALUE: TIMER_Delay:u32Cntr <- $r1
	@DEBUG_VALUE: TIMER_Delay:u32Prescale <- [DW_OP_plus_uconst 8] [$sp+0]
	@DEBUG_VALUE: TIMER_Delay:u32Clk <- $r6
	@DEBUG_VALUE: TIMER_Delay:timer <- $r4
	movs	r0, #0
	mvns	r0, r0
	.loc	4 170 1 epilogue_begin is_stmt 1 @ ../../M031BSP/Library/StdDriver/src/timer.c:170:1
	add	sp, #12
	pop	{r4, r5, r6, r7, pc}
.Ltmp166:
.LBB3_55:
	@DEBUG_VALUE: TIMER_Delay:u32Prescale <- [DW_OP_plus_uconst 8] [$sp+0]
	@DEBUG_VALUE: TIMER_Delay:i <- 0
	@DEBUG_VALUE: TIMER_Delay:u32Clk <- $r6
	@DEBUG_VALUE: TIMER_Delay:timer <- $r4
	@DEBUG_VALUE: TIMER_Delay:u32Delay <- undef
	.loc	4 144 9                         @ ../../M031BSP/Library/StdDriver/src/timer.c:144:9
	nop
.Ltmp167:
	.loc	4 142 78                        @ ../../M031BSP/Library/StdDriver/src/timer.c:142:78
	subs	r1, r0, #2
.Ltmp168:
	@DEBUG_VALUE: TIMER_Delay:u32Delay <- $r1
	.loc	4 142 5 is_stmt 0               @ ../../M031BSP/Library/StdDriver/src/timer.c:142:5
	cmp	r0, #3
	bhs	.LBB3_31
	b	.LBB3_32
.Ltmp169:
	.p2align	2
@ %bb.56:
	.loc	4 0 5                           @ ../../M031BSP/Library/StdDriver/src/timer.c:0:5
__arm_cp.3_0:
	.long	1073742356                      @ 0x40000214
.Lcpi_end10:
	.size	__arm_cp.3_0, .Lcpi_end10-__arm_cp.3_0
__arm_cp.3_1:
	.long	1074069504                      @ 0x40050000
.Lcpi_end11:
	.size	__arm_cp.3_1, .Lcpi_end11-__arm_cp.3_1
__arm_cp.3_2:
	.long	1074073600                      @ 0x40051000
.Lcpi_end12:
	.size	__arm_cp.3_2, .Lcpi_end12-__arm_cp.3_2
__arm_cp.3_3:
	.long	1074069536                      @ 0x40050020
.Lcpi_end13:
	.size	__arm_cp.3_3, .Lcpi_end13-__arm_cp.3_3
__arm_cp.3_4:
	.long	.L__const.TIMER_GetModuleClock.au32Clk
.Lcpi_end14:
	.size	__arm_cp.3_4, .Lcpi_end14-__arm_cp.3_4
__arm_cp.3_5:
	.long	1000000                         @ 0xf4240
.Lcpi_end15:
	.size	__arm_cp.3_5, .Lcpi_end15-__arm_cp.3_5
__arm_cp.3_6:
	.long	1000000000                      @ 0x3b9aca00
.Lcpi_end16:
	.size	__arm_cp.3_6, .Lcpi_end16-__arm_cp.3_6
__arm_cp.3_7:
	.long	SystemCoreClock
.Lcpi_end17:
	.size	__arm_cp.3_7, .Lcpi_end17-__arm_cp.3_7
.Lfunc_end3:
	.size	TIMER_Delay, .Lfunc_end3-TIMER_Delay
	.cfi_endproc
	.cantunwind
	.fnend
                                        @ -- End function
	.section	.text.TIMER_EnableCapture,"ax",%progbits
	.hidden	TIMER_EnableCapture             @ -- Begin function TIMER_EnableCapture
	.globl	TIMER_EnableCapture
	.p2align	1
	.type	TIMER_EnableCapture,%function
	.code	16                              @ @TIMER_EnableCapture
	.thumb_func
TIMER_EnableCapture:
.Lfunc_begin4:
	.fnstart
	.cfi_startproc
@ %bb.0:
	@DEBUG_VALUE: TIMER_EnableCapture:timer <- $r0
	@DEBUG_VALUE: TIMER_EnableCapture:u32CapMode <- $r1
	@DEBUG_VALUE: TIMER_EnableCapture:u32Edge <- $r2
	.loc	4 193 32 prologue_end is_stmt 1 @ ../../M031BSP/Library/StdDriver/src/timer.c:193:32
	orrs	r1, r2
.Ltmp170:
	@DEBUG_VALUE: TIMER_EnableCapture:u32CapMode <- [DW_OP_LLVM_entry_value 1] $r1
	.loc	4 192 29                        @ ../../M031BSP/Library/StdDriver/src/timer.c:192:29
	ldr	r2, [r0, #20]
.Ltmp171:
	@DEBUG_VALUE: TIMER_EnableCapture:u32Edge <- [DW_OP_LLVM_entry_value 1] $r2
	.loc	4 0 29 is_stmt 0                @ ../../M031BSP/Library/StdDriver/src/timer.c:0:29
	movs	r3, #22
	.loc	4 192 36                        @ ../../M031BSP/Library/StdDriver/src/timer.c:192:36
	bics	r2, r3
	.loc	4 193 42 is_stmt 1              @ ../../M031BSP/Library/StdDriver/src/timer.c:193:42
	orrs	r2, r1
	movs	r1, #8
	orrs	r1, r2
	.loc	4 192 19                        @ ../../M031BSP/Library/StdDriver/src/timer.c:192:19
	str	r1, [r0, #20]
	.loc	4 194 1                         @ ../../M031BSP/Library/StdDriver/src/timer.c:194:1
	bx	lr
.Ltmp172:
.Lfunc_end4:
	.size	TIMER_EnableCapture, .Lfunc_end4-TIMER_EnableCapture
	.cfi_endproc
	.cantunwind
	.fnend
                                        @ -- End function
	.section	.text.TIMER_DisableCapture,"ax",%progbits
	.hidden	TIMER_DisableCapture            @ -- Begin function TIMER_DisableCapture
	.globl	TIMER_DisableCapture
	.p2align	1
	.type	TIMER_DisableCapture,%function
	.code	16                              @ @TIMER_DisableCapture
	.thumb_func
TIMER_DisableCapture:
.Lfunc_begin5:
	.fnstart
	.cfi_startproc
@ %bb.0:
	@DEBUG_VALUE: TIMER_DisableCapture:timer <- $r0
	.loc	4 207 19 prologue_end           @ ../../M031BSP/Library/StdDriver/src/timer.c:207:19
	ldr	r1, [r0, #20]
	movs	r2, #8
	bics	r1, r2
	str	r1, [r0, #20]
	.loc	4 208 1                         @ ../../M031BSP/Library/StdDriver/src/timer.c:208:1
	bx	lr
.Ltmp173:
.Lfunc_end5:
	.size	TIMER_DisableCapture, .Lfunc_end5-TIMER_DisableCapture
	.cfi_endproc
	.cantunwind
	.fnend
                                        @ -- End function
	.section	.text.TIMER_EnableEventCounter,"ax",%progbits
	.hidden	TIMER_EnableEventCounter        @ -- Begin function TIMER_EnableEventCounter
	.globl	TIMER_EnableEventCounter
	.p2align	1
	.type	TIMER_EnableEventCounter,%function
	.code	16                              @ @TIMER_EnableEventCounter
	.thumb_func
TIMER_EnableEventCounter:
.Lfunc_begin6:
	.fnstart
	.cfi_startproc
@ %bb.0:
	@DEBUG_VALUE: TIMER_EnableEventCounter:timer <- $r0
	@DEBUG_VALUE: TIMER_EnableEventCounter:u32Edge <- $r1
	.loc	4 226 29 prologue_end           @ ../../M031BSP/Library/StdDriver/src/timer.c:226:29
	ldr	r2, [r0, #20]
	movs	r3, #1
	.loc	4 226 36 is_stmt 0              @ ../../M031BSP/Library/StdDriver/src/timer.c:226:36
	bics	r2, r3
	.loc	4 226 66                        @ ../../M031BSP/Library/StdDriver/src/timer.c:226:66
	orrs	r2, r1
	.loc	4 226 19                        @ ../../M031BSP/Library/StdDriver/src/timer.c:226:19
	str	r2, [r0, #20]
	lsls	r1, r3, #24
.Ltmp174:
	@DEBUG_VALUE: TIMER_EnableEventCounter:u32Edge <- [DW_OP_LLVM_entry_value 1] $r1
	.loc	4 227 16 is_stmt 1              @ ../../M031BSP/Library/StdDriver/src/timer.c:227:16
	ldr	r2, [r0]
	orrs	r2, r1
	str	r2, [r0]
	.loc	4 228 1                         @ ../../M031BSP/Library/StdDriver/src/timer.c:228:1
	bx	lr
.Ltmp175:
.Lfunc_end6:
	.size	TIMER_EnableEventCounter, .Lfunc_end6-TIMER_EnableEventCounter
	.cfi_endproc
	.cantunwind
	.fnend
                                        @ -- End function
	.section	.text.TIMER_DisableEventCounter,"ax",%progbits
	.hidden	TIMER_DisableEventCounter       @ -- Begin function TIMER_DisableEventCounter
	.globl	TIMER_DisableEventCounter
	.p2align	1
	.type	TIMER_DisableEventCounter,%function
	.code	16                              @ @TIMER_DisableEventCounter
	.thumb_func
TIMER_DisableEventCounter:
.Lfunc_begin7:
	.loc	4 240 0                         @ ../../M031BSP/Library/StdDriver/src/timer.c:240:0
	.fnstart
	.cfi_startproc
@ %bb.0:
	@DEBUG_VALUE: TIMER_DisableEventCounter:timer <- $r0
	movs	r1, #1
	lsls	r1, r1, #24
.Ltmp176:
	.loc	4 241 16 prologue_end           @ ../../M031BSP/Library/StdDriver/src/timer.c:241:16
	ldr	r2, [r0]
	bics	r2, r1
	str	r2, [r0]
	.loc	4 242 1                         @ ../../M031BSP/Library/StdDriver/src/timer.c:242:1
	bx	lr
.Ltmp177:
.Lfunc_end7:
	.size	TIMER_DisableEventCounter, .Lfunc_end7-TIMER_DisableEventCounter
	.cfi_endproc
	.cantunwind
	.fnend
                                        @ -- End function
	.section	.text.TIMER_EnableFreqCounter,"ax",%progbits
	.hidden	TIMER_EnableFreqCounter         @ -- Begin function TIMER_EnableFreqCounter
	.globl	TIMER_EnableFreqCounter
	.p2align	2
	.type	TIMER_EnableFreqCounter,%function
	.code	16                              @ @TIMER_EnableFreqCounter
	.thumb_func
TIMER_EnableFreqCounter:
.Lfunc_begin8:
	.loc	4 296 0                         @ ../../M031BSP/Library/StdDriver/src/timer.c:296:0
	.fnstart
	.cfi_startproc
@ %bb.0:
	@DEBUG_VALUE: TIMER_EnableFreqCounter:timer <- $r0
	@DEBUG_VALUE: TIMER_EnableFreqCounter:u32DropCount <- $r1
	@DEBUG_VALUE: TIMER_EnableFreqCounter:u32Timeout <- $r2
	@DEBUG_VALUE: TIMER_EnableFreqCounter:u32EnableInt <- $r3
	.save	{r4, r5, r7, lr}
	push	{r4, r5, r7, lr}
	.cfi_def_cfa_offset 16
	.cfi_offset lr, -4
	.cfi_offset r7, -8
	.cfi_offset r5, -12
	.cfi_offset r4, -16
	ldr	r1, __arm_cp.8_0
.Ltmp178:
	@DEBUG_VALUE: TIMER_EnableFreqCounter:u32DropCount <- [DW_OP_LLVM_entry_value 1] $r1
	ldr	r2, __arm_cp.8_1
.Ltmp179:
	@DEBUG_VALUE: TIMER_EnableFreqCounter:u32Timeout <- [DW_OP_LLVM_entry_value 1] $r2
	.loc	4 301 8 prologue_end            @ ../../M031BSP/Library/StdDriver/src/timer.c:301:8
	cmp	r0, r1
	beq	.LBB8_2
.Ltmp180:
@ %bb.1:
	@DEBUG_VALUE: TIMER_EnableFreqCounter:u32Timeout <- [DW_OP_LLVM_entry_value 1] $r2
	@DEBUG_VALUE: TIMER_EnableFreqCounter:u32DropCount <- [DW_OP_LLVM_entry_value 1] $r1
	@DEBUG_VALUE: TIMER_EnableFreqCounter:u32EnableInt <- $r3
	@DEBUG_VALUE: TIMER_EnableFreqCounter:timer <- $r0
	.loc	4 0 8 is_stmt 0                 @ ../../M031BSP/Library/StdDriver/src/timer.c:0:8
	mov	r4, r2
	b	.LBB8_3
.Ltmp181:
.LBB8_2:
	@DEBUG_VALUE: TIMER_EnableFreqCounter:u32Timeout <- [DW_OP_LLVM_entry_value 1] $r2
	@DEBUG_VALUE: TIMER_EnableFreqCounter:u32DropCount <- [DW_OP_LLVM_entry_value 1] $r1
	@DEBUG_VALUE: TIMER_EnableFreqCounter:u32EnableInt <- $r3
	@DEBUG_VALUE: TIMER_EnableFreqCounter:timer <- $r0
	mov	r4, r1
	adds	r4, #36
.Ltmp182:
.LBB8_3:
	@DEBUG_VALUE: TIMER_EnableFreqCounter:u32Timeout <- [DW_OP_LLVM_entry_value 1] $r2
	@DEBUG_VALUE: TIMER_EnableFreqCounter:u32DropCount <- [DW_OP_LLVM_entry_value 1] $r1
	@DEBUG_VALUE: TIMER_EnableFreqCounter:u32EnableInt <- $r3
	@DEBUG_VALUE: TIMER_EnableFreqCounter:timer <- $r0
	ldr	r5, __arm_cp.8_2
	.loc	4 301 12                        @ ../../M031BSP/Library/StdDriver/src/timer.c:301:12
	str	r5, [r4]
	.loc	4 302 8 is_stmt 1               @ ../../M031BSP/Library/StdDriver/src/timer.c:302:8
	cmp	r0, r1
	beq	.LBB8_5
.Ltmp183:
@ %bb.4:
	@DEBUG_VALUE: TIMER_EnableFreqCounter:u32Timeout <- [DW_OP_LLVM_entry_value 1] $r2
	@DEBUG_VALUE: TIMER_EnableFreqCounter:u32DropCount <- [DW_OP_LLVM_entry_value 1] $r1
	@DEBUG_VALUE: TIMER_EnableFreqCounter:u32EnableInt <- $r3
	@DEBUG_VALUE: TIMER_EnableFreqCounter:timer <- $r0
	.loc	4 0 8 is_stmt 0                 @ ../../M031BSP/Library/StdDriver/src/timer.c:0:8
	adds	r2, #16
	mov	r1, r2
	b	.LBB8_6
.Ltmp184:
.LBB8_5:
	@DEBUG_VALUE: TIMER_EnableFreqCounter:u32Timeout <- [DW_OP_LLVM_entry_value 1] $r2
	@DEBUG_VALUE: TIMER_EnableFreqCounter:u32DropCount <- [DW_OP_LLVM_entry_value 1] $r1
	@DEBUG_VALUE: TIMER_EnableFreqCounter:u32EnableInt <- $r3
	@DEBUG_VALUE: TIMER_EnableFreqCounter:timer <- $r0
	adds	r1, #52
.Ltmp185:
.LBB8_6:
	@DEBUG_VALUE: TIMER_EnableFreqCounter:u32Timeout <- [DW_OP_LLVM_entry_value 1] $r2
	@DEBUG_VALUE: TIMER_EnableFreqCounter:u32DropCount <- [DW_OP_LLVM_entry_value 1] $r1
	@DEBUG_VALUE: TIMER_EnableFreqCounter:u32EnableInt <- $r3
	@DEBUG_VALUE: TIMER_EnableFreqCounter:timer <- $r0
	subs	r2, r3, #1
	sbcs	r3, r2
.Ltmp186:
	@DEBUG_VALUE: TIMER_EnableFreqCounter:u32EnableInt <- [DW_OP_LLVM_entry_value 1] $r3
	.loc	4 302 17                        @ ../../M031BSP/Library/StdDriver/src/timer.c:302:17
	lsls	r2, r3, #5
	.loc	4 302 15                        @ ../../M031BSP/Library/StdDriver/src/timer.c:302:15
	str	r2, [r1]
	ldr	r1, __arm_cp.8_3
	.loc	4 303 16 is_stmt 1              @ ../../M031BSP/Library/StdDriver/src/timer.c:303:16
	str	r1, [r0]
	.loc	4 306 1 epilogue_begin          @ ../../M031BSP/Library/StdDriver/src/timer.c:306:1
	pop	{r4, r5, r7, pc}
.Ltmp187:
	.p2align	2
@ %bb.7:
	.loc	4 0 1 is_stmt 0                 @ ../../M031BSP/Library/StdDriver/src/timer.c:0:1
__arm_cp.8_0:
	.long	1074069504                      @ 0x40050000
.Lcpi_end18:
	.size	__arm_cp.8_0, .Lcpi_end18-__arm_cp.8_0
__arm_cp.8_1:
	.long	1074073636                      @ 0x40051024
.Lcpi_end19:
	.size	__arm_cp.8_1, .Lcpi_end19-__arm_cp.8_1
__arm_cp.8_2:
	.long	16777215                        @ 0xffffff
.Lcpi_end20:
	.size	__arm_cp.8_2, .Lcpi_end20-__arm_cp.8_2
__arm_cp.8_3:
	.long	1073742848                      @ 0x40000400
.Lcpi_end21:
	.size	__arm_cp.8_3, .Lcpi_end21-__arm_cp.8_3
.Lfunc_end8:
	.size	TIMER_EnableFreqCounter, .Lfunc_end8-TIMER_EnableFreqCounter
	.cfi_endproc
	.cantunwind
	.fnend
                                        @ -- End function
	.section	.text.TIMER_DisableFreqCounter,"ax",%progbits
	.hidden	TIMER_DisableFreqCounter        @ -- Begin function TIMER_DisableFreqCounter
	.globl	TIMER_DisableFreqCounter
	.p2align	1
	.type	TIMER_DisableFreqCounter,%function
	.code	16                              @ @TIMER_DisableFreqCounter
	.thumb_func
TIMER_DisableFreqCounter:
.Lfunc_begin9:
	.loc	4 316 0 is_stmt 1               @ ../../M031BSP/Library/StdDriver/src/timer.c:316:0
	.fnstart
	.cfi_startproc
@ %bb.0:
	@DEBUG_VALUE: TIMER_DisableFreqCounter:timer <- $r0
	movs	r1, #1
	lsls	r1, r1, #10
.Ltmp188:
	.loc	4 317 16 prologue_end           @ ../../M031BSP/Library/StdDriver/src/timer.c:317:16
	ldr	r2, [r0]
	bics	r2, r1
	str	r2, [r0]
	.loc	4 318 1                         @ ../../M031BSP/Library/StdDriver/src/timer.c:318:1
	bx	lr
.Ltmp189:
.Lfunc_end9:
	.size	TIMER_DisableFreqCounter, .Lfunc_end9-TIMER_DisableFreqCounter
	.cfi_endproc
	.cantunwind
	.fnend
                                        @ -- End function
	.section	.text.TIMER_SetTriggerSource,"ax",%progbits
	.hidden	TIMER_SetTriggerSource          @ -- Begin function TIMER_SetTriggerSource
	.globl	TIMER_SetTriggerSource
	.p2align	1
	.type	TIMER_SetTriggerSource,%function
	.code	16                              @ @TIMER_SetTriggerSource
	.thumb_func
TIMER_SetTriggerSource:
.Lfunc_begin10:
	.loc	4 331 0                         @ ../../M031BSP/Library/StdDriver/src/timer.c:331:0
	.fnstart
	.cfi_startproc
@ %bb.0:
	@DEBUG_VALUE: TIMER_SetTriggerSource:timer <- $r0
	@DEBUG_VALUE: TIMER_SetTriggerSource:u32Src <- $r1
	movs	r2, #1
	lsls	r2, r2, #18
.Ltmp190:
	.loc	4 332 26 prologue_end           @ ../../M031BSP/Library/StdDriver/src/timer.c:332:26
	ldr	r3, [r0]
	.loc	4 332 30 is_stmt 0              @ ../../M031BSP/Library/StdDriver/src/timer.c:332:30
	bics	r3, r2
	.loc	4 332 56                        @ ../../M031BSP/Library/StdDriver/src/timer.c:332:56
	orrs	r3, r1
	.loc	4 332 16                        @ ../../M031BSP/Library/StdDriver/src/timer.c:332:16
	str	r3, [r0]
	.loc	4 333 1 is_stmt 1               @ ../../M031BSP/Library/StdDriver/src/timer.c:333:1
	bx	lr
.Ltmp191:
.Lfunc_end10:
	.size	TIMER_SetTriggerSource, .Lfunc_end10-TIMER_SetTriggerSource
	.cfi_endproc
	.cantunwind
	.fnend
                                        @ -- End function
	.section	.text.TIMER_SetTriggerTarget,"ax",%progbits
	.hidden	TIMER_SetTriggerTarget          @ -- Begin function TIMER_SetTriggerTarget
	.globl	TIMER_SetTriggerTarget
	.p2align	2
	.type	TIMER_SetTriggerTarget,%function
	.code	16                              @ @TIMER_SetTriggerTarget
	.thumb_func
TIMER_SetTriggerTarget:
.Lfunc_begin11:
	.fnstart
	.cfi_startproc
@ %bb.0:
	@DEBUG_VALUE: TIMER_SetTriggerTarget:timer <- $r0
	@DEBUG_VALUE: TIMER_SetTriggerTarget:u32Mask <- $r1
	.loc	4 349 26 prologue_end           @ ../../M031BSP/Library/StdDriver/src/timer.c:349:26
	ldr	r2, [r0]
	ldr	r3, __arm_cp.11_0
	.loc	4 349 30 is_stmt 0              @ ../../M031BSP/Library/StdDriver/src/timer.c:349:30
	ands	r3, r2
	.loc	4 349 128                       @ ../../M031BSP/Library/StdDriver/src/timer.c:349:128
	orrs	r3, r1
	.loc	4 349 16                        @ ../../M031BSP/Library/StdDriver/src/timer.c:349:16
	str	r3, [r0]
	.loc	4 350 1 is_stmt 1               @ ../../M031BSP/Library/StdDriver/src/timer.c:350:1
	bx	lr
.Ltmp192:
	.p2align	2
@ %bb.1:
	.loc	4 0 1 is_stmt 0                 @ ../../M031BSP/Library/StdDriver/src/timer.c:0:1
__arm_cp.11_0:
	.long	4292345087                      @ 0xffd7fcff
.Lcpi_end22:
	.size	__arm_cp.11_0, .Lcpi_end22-__arm_cp.11_0
.Lfunc_end11:
	.size	TIMER_SetTriggerTarget, .Lfunc_end11-TIMER_SetTriggerTarget
	.cfi_endproc
	.cantunwind
	.fnend
                                        @ -- End function
	.section	.text.TIMER_CaptureSelect,"ax",%progbits
	.hidden	TIMER_CaptureSelect             @ -- Begin function TIMER_CaptureSelect
	.globl	TIMER_CaptureSelect
	.p2align	1
	.type	TIMER_CaptureSelect,%function
	.code	16                              @ @TIMER_CaptureSelect
	.thumb_func
TIMER_CaptureSelect:
.Lfunc_begin12:
	.loc	4 368 0 is_stmt 1               @ ../../M031BSP/Library/StdDriver/src/timer.c:368:0
	.fnstart
	.cfi_startproc
@ %bb.0:
	@DEBUG_VALUE: TIMER_CaptureSelect:timer <- $r0
	@DEBUG_VALUE: TIMER_CaptureSelect:u32Src <- $r1
	.loc	4 0 0 is_stmt 0                 @ ../../M031BSP/Library/StdDriver/src/timer.c:0:0
	ldr	r2, [r0]
.Ltmp193:
	.loc	4 369 9 prologue_end is_stmt 1  @ ../../M031BSP/Library/StdDriver/src/timer.c:369:9
	cmp	r1, #255
	bne	.LBB12_2
.Ltmp194:
@ %bb.1:
	@DEBUG_VALUE: TIMER_CaptureSelect:u32Src <- $r1
	@DEBUG_VALUE: TIMER_CaptureSelect:timer <- $r0
	.loc	4 0 9 is_stmt 0                 @ ../../M031BSP/Library/StdDriver/src/timer.c:0:9
	movs	r1, #1
.Ltmp195:
	@DEBUG_VALUE: TIMER_CaptureSelect:u32Src <- [DW_OP_LLVM_entry_value 1] $r1
	lsls	r1, r1, #16
.Ltmp196:
	.loc	4 371 34 is_stmt 1              @ ../../M031BSP/Library/StdDriver/src/timer.c:371:34
	bics	r2, r1
	.loc	4 371 20 is_stmt 0              @ ../../M031BSP/Library/StdDriver/src/timer.c:371:20
	str	r2, [r0]
.Ltmp197:
	.loc	4 381 1 is_stmt 1               @ ../../M031BSP/Library/StdDriver/src/timer.c:381:1
	bx	lr
.Ltmp198:
.LBB12_2:
	@DEBUG_VALUE: TIMER_CaptureSelect:u32Src <- $r1
	@DEBUG_VALUE: TIMER_CaptureSelect:timer <- $r0
	.loc	4 0 1 is_stmt 0                 @ ../../M031BSP/Library/StdDriver/src/timer.c:0:1
	movs	r3, #1
	lsls	r3, r3, #16
.Ltmp199:
	.loc	4 376 61 is_stmt 1              @ ../../M031BSP/Library/StdDriver/src/timer.c:376:61
	orrs	r2, r3
	.loc	4 376 20 is_stmt 0              @ ../../M031BSP/Library/StdDriver/src/timer.c:376:20
	str	r2, [r0]
	movs	r2, #7
	lsls	r2, r2, #8
	.loc	4 378 33 is_stmt 1              @ ../../M031BSP/Library/StdDriver/src/timer.c:378:33
	ldr	r3, [r0, #20]
	.loc	4 378 40 is_stmt 0              @ ../../M031BSP/Library/StdDriver/src/timer.c:378:40
	bics	r3, r2
	.loc	4 378 75                        @ ../../M031BSP/Library/StdDriver/src/timer.c:378:75
	orrs	r3, r1
	.loc	4 378 23                        @ ../../M031BSP/Library/StdDriver/src/timer.c:378:23
	str	r3, [r0, #20]
.Ltmp200:
	.loc	4 381 1 is_stmt 1               @ ../../M031BSP/Library/StdDriver/src/timer.c:381:1
	bx	lr
.Ltmp201:
.Lfunc_end12:
	.size	TIMER_CaptureSelect, .Lfunc_end12-TIMER_CaptureSelect
	.cfi_endproc
	.cantunwind
	.fnend
                                        @ -- End function
	.section	.text.TIMER_ResetCounter,"ax",%progbits
	.hidden	TIMER_ResetCounter              @ -- Begin function TIMER_ResetCounter
	.globl	TIMER_ResetCounter
	.p2align	2
	.type	TIMER_ResetCounter,%function
	.code	16                              @ @TIMER_ResetCounter
	.thumb_func
TIMER_ResetCounter:
.Lfunc_begin13:
	.loc	4 395 0                         @ ../../M031BSP/Library/StdDriver/src/timer.c:395:0
	.fnstart
	.cfi_startproc
@ %bb.0:
	@DEBUG_VALUE: TIMER_ResetCounter:timer <- $r0
	.save	{r4, r5, r6, r7, lr}
	push	{r4, r5, r6, r7, lr}
	.cfi_def_cfa_offset 20
	.cfi_offset lr, -4
	.cfi_offset r7, -8
	.cfi_offset r6, -12
	.cfi_offset r5, -16
	.cfi_offset r4, -20
	.pad	#4
	sub	sp, #4
	.cfi_def_cfa_offset 24
	mov	r4, r0
.Ltmp202:
	@DEBUG_VALUE: TIMER_ResetCounter:timer <- $r4
	movs	r6, #1
	lsls	r7, r6, #26
.Ltmp203:
	.loc	4 398 16 prologue_end           @ ../../M031BSP/Library/StdDriver/src/timer.c:398:16
	ldr	r0, [r0]
	orrs	r0, r7
	str	r0, [r4]
	.loc	4 400 17                        @ ../../M031BSP/Library/StdDriver/src/timer.c:400:17
	ldr	r0, __arm_cp.13_0
	ldr	r5, [r0]
	ldr	r0, __arm_cp.13_1
	ldr	r1, __arm_cp.13_2
.Ltmp204:
	@DEBUG_VALUE: TIMER_GetModuleClock:timer <- $r4
	.loc	4 259 8                         @ ../../M031BSP/Library/StdDriver/src/timer.c:259:8
	cmp	r4, r1
	beq	.LBB13_4
.Ltmp205:
@ %bb.1:
	@DEBUG_VALUE: TIMER_GetModuleClock:timer <- $r4
	@DEBUG_VALUE: TIMER_ResetCounter:timer <- $r4
	.loc	4 0 0 is_stmt 0                 @ ../../M031BSP/Library/StdDriver/src/timer.c:0:0
	ldr	r0, [r0]
	ldr	r1, __arm_cp.13_3
.Ltmp206:
	.loc	4 261 13 is_stmt 1              @ ../../M031BSP/Library/StdDriver/src/timer.c:261:13
	cmp	r4, r1
	beq	.LBB13_5
.Ltmp207:
@ %bb.2:
	@DEBUG_VALUE: TIMER_GetModuleClock:timer <- $r4
	@DEBUG_VALUE: TIMER_ResetCounter:timer <- $r4
	.loc	4 0 13 is_stmt 0                @ ../../M031BSP/Library/StdDriver/src/timer.c:0:13
	ldr	r1, __arm_cp.13_4
	.loc	4 261 13                        @ ../../M031BSP/Library/StdDriver/src/timer.c:261:13
	cmp	r4, r1
	bne	.LBB13_6
.Ltmp208:
@ %bb.3:
	@DEBUG_VALUE: TIMER_GetModuleClock:timer <- $r4
	@DEBUG_VALUE: TIMER_ResetCounter:timer <- $r4
	.loc	4 262 59 is_stmt 1              @ ../../M031BSP/Library/StdDriver/src/timer.c:262:59
	lsrs	r0, r0, #12
.Ltmp209:
	@DEBUG_VALUE: TIMER_GetModuleClock:u32Src <- [DW_OP_constu 7, DW_OP_and, DW_OP_stack_value] $r0
	.loc	4 0 59 is_stmt 0                @ ../../M031BSP/Library/StdDriver/src/timer.c:0:59
	b	.LBB13_7
.Ltmp210:
.LBB13_4:
	@DEBUG_VALUE: TIMER_GetModuleClock:timer <- $r4
	@DEBUG_VALUE: TIMER_ResetCounter:timer <- $r4
	.loc	4 260 24 is_stmt 1              @ ../../M031BSP/Library/StdDriver/src/timer.c:260:24
	ldr	r0, [r0]
	.loc	4 260 59 is_stmt 0              @ ../../M031BSP/Library/StdDriver/src/timer.c:260:59
	lsrs	r0, r0, #8
.Ltmp211:
	@DEBUG_VALUE: TIMER_GetModuleClock:u32Src <- [DW_OP_constu 7, DW_OP_and, DW_OP_stack_value] $r0
	.loc	4 0 59                          @ ../../M031BSP/Library/StdDriver/src/timer.c:0:59
	b	.LBB13_7
.Ltmp212:
.LBB13_5:
	@DEBUG_VALUE: TIMER_GetModuleClock:timer <- $r4
	@DEBUG_VALUE: TIMER_ResetCounter:timer <- $r4
	.loc	4 264 59 is_stmt 1              @ ../../M031BSP/Library/StdDriver/src/timer.c:264:59
	lsrs	r0, r0, #16
.Ltmp213:
	@DEBUG_VALUE: TIMER_GetModuleClock:u32Src <- [DW_OP_constu 7, DW_OP_and, DW_OP_stack_value] $r0
	.loc	4 0 59 is_stmt 0                @ ../../M031BSP/Library/StdDriver/src/timer.c:0:59
	b	.LBB13_7
.Ltmp214:
.LBB13_6:
	@DEBUG_VALUE: TIMER_GetModuleClock:timer <- $r4
	@DEBUG_VALUE: TIMER_ResetCounter:timer <- $r4
	.loc	4 266 59 is_stmt 1              @ ../../M031BSP/Library/StdDriver/src/timer.c:266:59
	lsrs	r0, r0, #20
.Ltmp215:
	@DEBUG_VALUE: TIMER_GetModuleClock:u32Src <- [DW_OP_constu 7, DW_OP_and, DW_OP_stack_value] $r0
.LBB13_7:
	@DEBUG_VALUE: TIMER_GetModuleClock:u32Src <- [DW_OP_constu 7, DW_OP_and, DW_OP_stack_value] $r0
	@DEBUG_VALUE: TIMER_GetModuleClock:timer <- $r4
	@DEBUG_VALUE: TIMER_ResetCounter:timer <- $r4
	.loc	4 0 59 is_stmt 0                @ ../../M031BSP/Library/StdDriver/src/timer.c:0:59
	movs	r1, #7
	ands	r1, r0
.Ltmp216:
	@DEBUG_VALUE: TIMER_GetModuleClock:u32Src <- $r1
	.loc	4 268 8 is_stmt 1               @ ../../M031BSP/Library/StdDriver/src/timer.c:268:8
	cmp	r1, #2
	bne	.LBB13_10
.Ltmp217:
@ %bb.8:
	@DEBUG_VALUE: TIMER_GetModuleClock:u32Src <- $r1
	@DEBUG_VALUE: TIMER_GetModuleClock:timer <- $r4
	@DEBUG_VALUE: TIMER_ResetCounter:timer <- $r4
	.loc	4 0 8 is_stmt 0                 @ ../../M031BSP/Library/StdDriver/src/timer.c:0:8
	movs	r0, #32
.Ltmp218:
	.loc	4 270 31 is_stmt 1              @ ../../M031BSP/Library/StdDriver/src/timer.c:270:31
	orrs	r0, r4
	ldr	r1, __arm_cp.13_4
.Ltmp219:
	cmp	r0, r1
	bne	.LBB13_11
.Ltmp220:
@ %bb.9:
	@DEBUG_VALUE: TIMER_GetModuleClock:timer <- $r4
	@DEBUG_VALUE: TIMER_ResetCounter:timer <- $r4
	.loc	4 271 20                        @ ../../M031BSP/Library/StdDriver/src/timer.c:271:20
	bl	CLK_GetPCLK0Freq
.Ltmp221:
	.loc	4 0 20 is_stmt 0                @ ../../M031BSP/Library/StdDriver/src/timer.c:0:20
	b	.LBB13_12
.Ltmp222:
.LBB13_10:
	@DEBUG_VALUE: TIMER_GetModuleClock:u32Src <- $r1
	@DEBUG_VALUE: TIMER_GetModuleClock:timer <- $r4
	@DEBUG_VALUE: TIMER_ResetCounter:timer <- $r4
	.loc	4 276 13 is_stmt 1              @ ../../M031BSP/Library/StdDriver/src/timer.c:276:13
	lsls	r0, r1, #2
	ldr	r1, __arm_cp.13_5
.Ltmp223:
	ldr	r1, [r1, r0]
	b	.LBB13_13
.Ltmp224:
.LBB13_11:
	@DEBUG_VALUE: TIMER_GetModuleClock:timer <- $r4
	@DEBUG_VALUE: TIMER_ResetCounter:timer <- $r4
	.loc	4 273 20                        @ ../../M031BSP/Library/StdDriver/src/timer.c:273:20
	bl	CLK_GetPCLK1Freq
.Ltmp225:
.LBB13_12:
	@DEBUG_VALUE: TIMER_GetModuleClock:timer <- $r4
	@DEBUG_VALUE: TIMER_ResetCounter:timer <- $r4
	.loc	4 0 0 is_stmt 0                 @ ../../M031BSP/Library/StdDriver/src/timer.c:0:0
	mov	r1, r0
.Ltmp226:
.LBB13_13:
	@DEBUG_VALUE: TIMER_ResetCounter:timer <- $r4
	.loc	4 400 33 is_stmt 1              @ ../../M031BSP/Library/StdDriver/src/timer.c:400:33
	mov	r0, r5
	bl	__aeabi_uidiv
.Ltmp227:
	.loc	4 0 33 is_stmt 0                @ ../../M031BSP/Library/StdDriver/src/timer.c:0:33
	movs	r2, #3
	.loc	4 400 64                        @ ../../M031BSP/Library/StdDriver/src/timer.c:400:64
	muls	r2, r0, r2
.Ltmp228:
	@DEBUG_VALUE: TIMER_ResetCounter:u32Delay <- $r2
	.loc	4 401 20 is_stmt 1              @ ../../M031BSP/Library/StdDriver/src/timer.c:401:20
	ldr	r0, [r4]
	.loc	4 401 73 is_stmt 0              @ ../../M031BSP/Library/StdDriver/src/timer.c:401:73
	tst	r0, r7
	bne	.LBB13_15
.Ltmp229:
@ %bb.14:
	@DEBUG_VALUE: TIMER_ResetCounter:u32Delay <- $r2
	@DEBUG_VALUE: TIMER_ResetCounter:timer <- $r4
	.loc	4 0 73                          @ ../../M031BSP/Library/StdDriver/src/timer.c:0:73
	mov	r1, r2
	b	.LBB13_24
.Ltmp230:
.LBB13_15:                              @ =>This Inner Loop Header: Depth=1
	@DEBUG_VALUE: TIMER_ResetCounter:u32Delay <- $r2
	@DEBUG_VALUE: TIMER_ResetCounter:timer <- $r4
	@DEBUG_VALUE: TIMER_ResetCounter:u32Delay <- [DW_OP_constu 1, DW_OP_minus, DW_OP_stack_value] $r2
	movs	r1, #0
	.loc	4 401 5                         @ ../../M031BSP/Library/StdDriver/src/timer.c:401:5
	cmp	r2, #1
	beq	.LBB13_24
.Ltmp231:
@ %bb.16:                               @   in Loop: Header=BB13_15 Depth=1
	@DEBUG_VALUE: TIMER_ResetCounter:u32Delay <- [DW_OP_constu 1, DW_OP_minus, DW_OP_stack_value] $r2
	@DEBUG_VALUE: TIMER_ResetCounter:timer <- $r4
	.loc	4 403 9 is_stmt 1               @ ../../M031BSP/Library/StdDriver/src/timer.c:403:9
	nop
.Ltmp232:
	@DEBUG_VALUE: TIMER_ResetCounter:u32Delay <- [DW_OP_constu 1, DW_OP_minus, DW_OP_stack_value] $r2
	.loc	4 401 20                        @ ../../M031BSP/Library/StdDriver/src/timer.c:401:20
	ldr	r0, [r4]
	.loc	4 401 73 is_stmt 0              @ ../../M031BSP/Library/StdDriver/src/timer.c:401:73
	tst	r0, r7
	beq	.LBB13_23
.Ltmp233:
@ %bb.17:                               @   in Loop: Header=BB13_15 Depth=1
	@DEBUG_VALUE: TIMER_ResetCounter:u32Delay <- [DW_OP_constu 1, DW_OP_minus, DW_OP_stack_value] $r2
	@DEBUG_VALUE: TIMER_ResetCounter:timer <- $r4
	@DEBUG_VALUE: TIMER_ResetCounter:u32Delay <- [DW_OP_constu 2, DW_OP_minus, DW_OP_stack_value] $r2
	.loc	4 401 5                         @ ../../M031BSP/Library/StdDriver/src/timer.c:401:5
	cmp	r2, #2
	beq	.LBB13_24
.Ltmp234:
@ %bb.18:                               @   in Loop: Header=BB13_15 Depth=1
	@DEBUG_VALUE: TIMER_ResetCounter:u32Delay <- [DW_OP_constu 2, DW_OP_minus, DW_OP_stack_value] $r2
	@DEBUG_VALUE: TIMER_ResetCounter:timer <- $r4
	.loc	4 403 9 is_stmt 1               @ ../../M031BSP/Library/StdDriver/src/timer.c:403:9
	nop
.Ltmp235:
	@DEBUG_VALUE: TIMER_ResetCounter:u32Delay <- [DW_OP_constu 2, DW_OP_minus, DW_OP_stack_value] $r2
	.loc	4 401 20                        @ ../../M031BSP/Library/StdDriver/src/timer.c:401:20
	ldr	r0, [r4]
	.loc	4 401 73 is_stmt 0              @ ../../M031BSP/Library/StdDriver/src/timer.c:401:73
	tst	r0, r7
	beq	.LBB13_23
.Ltmp236:
@ %bb.19:                               @   in Loop: Header=BB13_15 Depth=1
	@DEBUG_VALUE: TIMER_ResetCounter:u32Delay <- [DW_OP_constu 2, DW_OP_minus, DW_OP_stack_value] $r2
	@DEBUG_VALUE: TIMER_ResetCounter:timer <- $r4
	@DEBUG_VALUE: TIMER_ResetCounter:u32Delay <- [DW_OP_constu 3, DW_OP_minus, DW_OP_stack_value] $r2
	.loc	4 401 5                         @ ../../M031BSP/Library/StdDriver/src/timer.c:401:5
	cmp	r2, #3
	beq	.LBB13_24
.Ltmp237:
@ %bb.20:                               @   in Loop: Header=BB13_15 Depth=1
	@DEBUG_VALUE: TIMER_ResetCounter:u32Delay <- [DW_OP_constu 3, DW_OP_minus, DW_OP_stack_value] $r2
	@DEBUG_VALUE: TIMER_ResetCounter:timer <- $r4
	.loc	4 403 9 is_stmt 1               @ ../../M031BSP/Library/StdDriver/src/timer.c:403:9
	nop
.Ltmp238:
	@DEBUG_VALUE: TIMER_ResetCounter:u32Delay <- [DW_OP_constu 3, DW_OP_minus, DW_OP_stack_value] $r2
	.loc	4 401 20                        @ ../../M031BSP/Library/StdDriver/src/timer.c:401:20
	ldr	r0, [r4]
	.loc	4 401 73 is_stmt 0              @ ../../M031BSP/Library/StdDriver/src/timer.c:401:73
	tst	r0, r7
	beq	.LBB13_23
.Ltmp239:
@ %bb.21:                               @   in Loop: Header=BB13_15 Depth=1
	@DEBUG_VALUE: TIMER_ResetCounter:u32Delay <- [DW_OP_constu 3, DW_OP_minus, DW_OP_stack_value] $r2
	@DEBUG_VALUE: TIMER_ResetCounter:timer <- $r4
	@DEBUG_VALUE: TIMER_ResetCounter:u32Delay <- [DW_OP_constu 3, DW_OP_minus, DW_OP_stack_value] $r2
	.loc	4 401 77                        @ ../../M031BSP/Library/StdDriver/src/timer.c:401:77
	subs	r2, r2, #4
.Ltmp240:
	@DEBUG_VALUE: TIMER_ResetCounter:u32Delay <- $r2
	.loc	4 401 5                         @ ../../M031BSP/Library/StdDriver/src/timer.c:401:5
	beq	.LBB13_24
.Ltmp241:
@ %bb.22:                               @   in Loop: Header=BB13_15 Depth=1
	@DEBUG_VALUE: TIMER_ResetCounter:u32Delay <- $r2
	@DEBUG_VALUE: TIMER_ResetCounter:timer <- $r4
	.loc	4 403 9 is_stmt 1               @ ../../M031BSP/Library/StdDriver/src/timer.c:403:9
	nop
.Ltmp242:
	@DEBUG_VALUE: TIMER_ResetCounter:u32Delay <- $r2
	.loc	4 401 20                        @ ../../M031BSP/Library/StdDriver/src/timer.c:401:20
	ldr	r0, [r4]
	.loc	4 401 73 is_stmt 0              @ ../../M031BSP/Library/StdDriver/src/timer.c:401:73
	tst	r0, r7
	bne	.LBB13_15
.Ltmp243:
.LBB13_23:
	@DEBUG_VALUE: TIMER_ResetCounter:timer <- $r4
	.loc	4 0 73                          @ ../../M031BSP/Library/StdDriver/src/timer.c:0:73
	mov	r1, r6
.Ltmp244:
.LBB13_24:
	@DEBUG_VALUE: TIMER_ResetCounter:timer <- $r4
	@DEBUG_VALUE: TIMER_ResetCounter:u32Delay <- $r1
	movs	r0, #0
	.loc	4 405 12 is_stmt 1              @ ../../M031BSP/Library/StdDriver/src/timer.c:405:12
	cmp	r1, #0
	bne	.LBB13_26
.Ltmp245:
@ %bb.25:
	@DEBUG_VALUE: TIMER_ResetCounter:u32Delay <- $r1
	@DEBUG_VALUE: TIMER_ResetCounter:timer <- $r4
	.loc	4 0 12 is_stmt 0                @ ../../M031BSP/Library/StdDriver/src/timer.c:0:12
	mvns	r0, r0
.Ltmp246:
.LBB13_26:
	@DEBUG_VALUE: TIMER_ResetCounter:u32Delay <- $r1
	@DEBUG_VALUE: TIMER_ResetCounter:timer <- $r4
	.loc	4 405 5 epilogue_begin          @ ../../M031BSP/Library/StdDriver/src/timer.c:405:5
	add	sp, #4
	pop	{r4, r5, r6, r7, pc}
.Ltmp247:
	.p2align	2
@ %bb.27:
	.loc	4 0 5                           @ ../../M031BSP/Library/StdDriver/src/timer.c:0:5
__arm_cp.13_0:
	.long	SystemCoreClock
.Lcpi_end23:
	.size	__arm_cp.13_0, .Lcpi_end23-__arm_cp.13_0
__arm_cp.13_1:
	.long	1073742356                      @ 0x40000214
.Lcpi_end24:
	.size	__arm_cp.13_1, .Lcpi_end24-__arm_cp.13_1
__arm_cp.13_2:
	.long	1074069504                      @ 0x40050000
.Lcpi_end25:
	.size	__arm_cp.13_2, .Lcpi_end25-__arm_cp.13_2
__arm_cp.13_3:
	.long	1074073600                      @ 0x40051000
.Lcpi_end26:
	.size	__arm_cp.13_3, .Lcpi_end26-__arm_cp.13_3
__arm_cp.13_4:
	.long	1074069536                      @ 0x40050020
.Lcpi_end27:
	.size	__arm_cp.13_4, .Lcpi_end27-__arm_cp.13_4
__arm_cp.13_5:
	.long	.L__const.TIMER_GetModuleClock.au32Clk
.Lcpi_end28:
	.size	__arm_cp.13_5, .Lcpi_end28-__arm_cp.13_5
.Lfunc_end13:
	.size	TIMER_ResetCounter, .Lfunc_end13-TIMER_ResetCounter
	.cfi_endproc
	.cantunwind
	.fnend
                                        @ -- End function
	.type	.L__const.TIMER_GetModuleClock.au32Clk,%object @ @__const.TIMER_GetModuleClock.au32Clk
	.section	.rodata.cst32,"aM",%progbits,32
	.p2align	2, 0x0
.L__const.TIMER_GetModuleClock.au32Clk:
	.long	32000000                        @ 0x1e84800
	.long	32768                           @ 0x8000
	.long	0                               @ 0x0
	.long	0                               @ 0x0
	.long	0                               @ 0x0
	.long	38400                           @ 0x9600
	.long	0                               @ 0x0
	.long	48000000                        @ 0x2dc6c00
	.size	.L__const.TIMER_GetModuleClock.au32Clk, 32

	.section	".note.GNU-stack","",%progbits
	.eabi_attribute	30, 1	@ Tag_ABI_optimization_goals
	.ARM_attribute	16, 1	@ Tag_AV_eba